

Microchip MPLAB XC8 Assembler V2.41 build 20230208172133 
                                                                                               Wed Aug 16 09:46:48 2023

Microchip MPLAB XC8 C Compiler v2.41 (Free license) build 20230208172133 Og1 
     1                           	processor	16F876A
     2                           	pagewidth 120
     3                           	opt	flic
     4                           	psect	strings,global,class=STRING,delta=2,noexec
     5                           	psect	cinit,global,class=CODE,merge=1,delta=2
     6                           	psect	bssBANK0,global,class=BANK0,space=1,delta=1,noexec
     7                           	psect	bssBANK1,global,class=BANK1,space=1,delta=1,noexec
     8                           	psect	clrtext,global,class=CODE,delta=2
     9                           	psect	cstackBANK1,global,class=BANK1,space=1,delta=1,noexec
    10                           	psect	cstackCOMMON,global,class=COMMON,space=1,delta=1,noexec
    11                           	psect	cstackBANK0,global,class=BANK0,space=1,delta=1,noexec
    12                           	psect	maintext,global,class=CODE,split=1,delta=2
    13                           	psect	text1,local,class=CODE,merge=1,delta=2
    14                           	psect	text2,local,class=CODE,merge=1,delta=2
    15                           	psect	text3,local,class=CODE,merge=1,delta=2
    16                           	psect	text4,local,class=CODE,merge=1,delta=2
    17                           	psect	text5,local,class=CODE,merge=1,delta=2
    18                           	psect	text6,local,class=CODE,merge=1,delta=2
    19                           	psect	text7,local,class=CODE,merge=1,delta=2
    20                           	psect	intentry,global,class=CODE,delta=2
    21                           	psect	text8,local,class=CODE,merge=1,delta=2
    22                           	psect	text9,local,class=CODE,merge=1,delta=2
    23                           	psect	text10,local,class=CODE,merge=1,delta=2
    24                           	psect	text11,local,class=CODE,merge=1,delta=2
    25                           	psect	text12,local,class=CODE,merge=1,delta=2
    26                           	psect	text13,local,class=CODE,merge=1,delta=2
    27                           	psect	text14,local,class=CODE,merge=1,delta=2
    28                           	psect	text15,local,class=CODE,merge=1,delta=2
    29                           	psect	text16,local,class=CODE,merge=1,delta=2
    30                           	psect	text17,local,class=CODE,merge=1,delta=2
    31                           	psect	text18,local,class=CODE,merge=1,delta=2
    32                           	psect	text19,local,class=CODE,merge=1,delta=2
    33                           	psect	text20,local,class=CODE,merge=1,delta=2,group=1
    34                           	psect	text21,local,class=CODE,merge=1,delta=2
    35                           	psect	text22,local,class=CODE,merge=1,delta=2
    36                           	psect	idloc,global,abs,ovrld,class=IDLOC,space=5,delta=2,noexec
    37                           	psect	config,global,abs,ovrld,class=CONFIG,space=4,delta=2,noexec
    38                           	psect	text7_split_1,local,class=CODE,merge=1,delta=2
    39                           	psect	text7_split_2,local,class=CODE,merge=1,delta=2
    40                           	psect	text7_split_3,local,class=CODE,merge=1,delta=2
    41                           	psect	text7_split_4,local,class=CODE,merge=1,delta=2
    42                           	psect	text7_split_5,local,class=CODE,merge=1,delta=2
    43                           	psect	text7_split_6,local,class=CODE,merge=1,delta=2
    44                           	psect	text7_split_7,local,class=CODE,merge=1,delta=2
    45                           	psect	text7_split_8,local,class=CODE,merge=1,delta=2
    46                           	dabs	1,0x7E,2
    47     0000                     
    48                           ; Version 2.40
    49                           ; Generated 17/11/2021 GMT
    50                           ; 
    51                           ; Copyright © 2021, Microchip Technology Inc. and its subsidiaries ("Microchip")
    52                           ; All rights reserved.
    53                           ; 
    54                           ; This software is developed by Microchip Technology Inc. and its subsidiaries ("Microch
      +                          ip").
    55                           ; 
    56                           ; Redistribution and use in source and binary forms, with or without modification, are
    57                           ; permitted provided that the following conditions are met:
    58                           ; 
    59                           ;     1. Redistributions of source code must retain the above copyright notice, this lis
      +                          t of
    60                           ;        conditions and the following disclaimer.
    61                           ; 
    62                           ;     2. Redistributions in binary form must reproduce the above copyright notice, this 
      +                          list
    63                           ;        of conditions and the following disclaimer in the documentation and/or other
    64                           ;        materials provided with the distribution. Publication is not required when
    65                           ;        this file is used in an embedded application.
    66                           ; 
    67                           ;     3. Microchip's name may not be used to endorse or promote products derived from th
      +                          is
    68                           ;        software without specific prior written permission.
    69                           ; 
    70                           ; THIS SOFTWARE IS PROVIDED BY MICROCHIP "AS IS" AND ANY EXPRESS OR IMPLIED WARRANTIES,
    71                           ; INCLUDING, BUT NOT LIMITED TO, THE IMPLIED WARRANTIES OF MERCHANTABILITY AND FITNESS F
      +                          OR
    72                           ; PURPOSE ARE DISCLAIMED.  IN NO EVENT SHALL MICROCHIP BE LIABLE FOR ANY DIRECT, INDIREC
      +                          T,
    73                           ; INCIDENTAL, SPECIAL, EXEMPLARY, OR CONSEQUENTIAL DAMAGES (INCLUDING BUT NOT LIMITED TO
    74                           ; PROCUREMENT OF SUBSTITUTE GOODS OR SERVICES; LOSS OF USE, DATA OR PROFITS; OR BUSINESS
    75                           ; INTERRUPTION) HOWSOEVER CAUSED AND ON ANY THEORY OF LIABILITY, WHETHER IN CONTRACT, ST
      +                          RICT
    76                           ; LIABILITY, OR TORT (INCLUDING NEGLIGENCE OR OTHERWISE) ARISING IN ANY WAY OUT OF THE U
      +                          SE OF
    77                           ; THIS SOFTWARE, EVEN IF ADVISED OF THE POSSIBILITY OF SUCH DAMAGE.
    78                           ; 
    79                           ; 
    80                           ; Code-generator required, PIC16F876A Definitions
    81                           ; 
    82                           ; SFR Addresses
    83     0000                     	;# 
    84     0001                     	;# 
    85     0002                     	;# 
    86     0003                     	;# 
    87     0004                     	;# 
    88     0005                     	;# 
    89     0006                     	;# 
    90     0007                     	;# 
    91     000A                     	;# 
    92     000B                     	;# 
    93     000C                     	;# 
    94     000D                     	;# 
    95     000E                     	;# 
    96     000E                     	;# 
    97     000F                     	;# 
    98     0010                     	;# 
    99     0011                     	;# 
   100     0012                     	;# 
   101     0013                     	;# 
   102     0014                     	;# 
   103     0015                     	;# 
   104     0015                     	;# 
   105     0016                     	;# 
   106     0017                     	;# 
   107     0018                     	;# 
   108     0019                     	;# 
   109     001A                     	;# 
   110     001B                     	;# 
   111     001B                     	;# 
   112     001C                     	;# 
   113     001D                     	;# 
   114     001E                     	;# 
   115     001F                     	;# 
   116     0081                     	;# 
   117     0085                     	;# 
   118     0086                     	;# 
   119     0087                     	;# 
   120     008C                     	;# 
   121     008D                     	;# 
   122     008E                     	;# 
   123     0091                     	;# 
   124     0092                     	;# 
   125     0093                     	;# 
   126     0094                     	;# 
   127     0098                     	;# 
   128     0099                     	;# 
   129     009C                     	;# 
   130     009D                     	;# 
   131     009E                     	;# 
   132     009F                     	;# 
   133     010C                     	;# 
   134     010D                     	;# 
   135     010E                     	;# 
   136     010F                     	;# 
   137     018C                     	;# 
   138     018D                     	;# 
   139     0000                     	;# 
   140     0001                     	;# 
   141     0002                     	;# 
   142     0003                     	;# 
   143     0004                     	;# 
   144     0005                     	;# 
   145     0006                     	;# 
   146     0007                     	;# 
   147     000A                     	;# 
   148     000B                     	;# 
   149     000C                     	;# 
   150     000D                     	;# 
   151     000E                     	;# 
   152     000E                     	;# 
   153     000F                     	;# 
   154     0010                     	;# 
   155     0011                     	;# 
   156     0012                     	;# 
   157     0013                     	;# 
   158     0014                     	;# 
   159     0015                     	;# 
   160     0015                     	;# 
   161     0016                     	;# 
   162     0017                     	;# 
   163     0018                     	;# 
   164     0019                     	;# 
   165     001A                     	;# 
   166     001B                     	;# 
   167     001B                     	;# 
   168     001C                     	;# 
   169     001D                     	;# 
   170     001E                     	;# 
   171     001F                     	;# 
   172     0081                     	;# 
   173     0085                     	;# 
   174     0086                     	;# 
   175     0087                     	;# 
   176     008C                     	;# 
   177     008D                     	;# 
   178     008E                     	;# 
   179     0091                     	;# 
   180     0092                     	;# 
   181     0093                     	;# 
   182     0094                     	;# 
   183     0098                     	;# 
   184     0099                     	;# 
   185     009C                     	;# 
   186     009D                     	;# 
   187     009E                     	;# 
   188     009F                     	;# 
   189     010C                     	;# 
   190     010D                     	;# 
   191     010E                     	;# 
   192     010F                     	;# 
   193     018C                     	;# 
   194     018D                     	;# 
   195     0000                     	;# 
   196     0001                     	;# 
   197     0002                     	;# 
   198     0003                     	;# 
   199     0004                     	;# 
   200     0005                     	;# 
   201     0006                     	;# 
   202     0007                     	;# 
   203     000A                     	;# 
   204     000B                     	;# 
   205     000C                     	;# 
   206     000D                     	;# 
   207     000E                     	;# 
   208     000E                     	;# 
   209     000F                     	;# 
   210     0010                     	;# 
   211     0011                     	;# 
   212     0012                     	;# 
   213     0013                     	;# 
   214     0014                     	;# 
   215     0015                     	;# 
   216     0015                     	;# 
   217     0016                     	;# 
   218     0017                     	;# 
   219     0018                     	;# 
   220     0019                     	;# 
   221     001A                     	;# 
   222     001B                     	;# 
   223     001B                     	;# 
   224     001C                     	;# 
   225     001D                     	;# 
   226     001E                     	;# 
   227     001F                     	;# 
   228     0081                     	;# 
   229     0085                     	;# 
   230     0086                     	;# 
   231     0087                     	;# 
   232     008C                     	;# 
   233     008D                     	;# 
   234     008E                     	;# 
   235     0091                     	;# 
   236     0092                     	;# 
   237     0093                     	;# 
   238     0094                     	;# 
   239     0098                     	;# 
   240     0099                     	;# 
   241     009C                     	;# 
   242     009D                     	;# 
   243     009E                     	;# 
   244     009F                     	;# 
   245     010C                     	;# 
   246     010D                     	;# 
   247     010E                     	;# 
   248     010F                     	;# 
   249     018C                     	;# 
   250     018D                     	;# 
   251     0000                     	;# 
   252     0001                     	;# 
   253     0002                     	;# 
   254     0003                     	;# 
   255     0004                     	;# 
   256     0005                     	;# 
   257     0006                     	;# 
   258     0007                     	;# 
   259     000A                     	;# 
   260     000B                     	;# 
   261     000C                     	;# 
   262     000D                     	;# 
   263     000E                     	;# 
   264     000E                     	;# 
   265     000F                     	;# 
   266     0010                     	;# 
   267     0011                     	;# 
   268     0012                     	;# 
   269     0013                     	;# 
   270     0014                     	;# 
   271     0015                     	;# 
   272     0015                     	;# 
   273     0016                     	;# 
   274     0017                     	;# 
   275     0018                     	;# 
   276     0019                     	;# 
   277     001A                     	;# 
   278     001B                     	;# 
   279     001B                     	;# 
   280     001C                     	;# 
   281     001D                     	;# 
   282     001E                     	;# 
   283     001F                     	;# 
   284     0081                     	;# 
   285     0085                     	;# 
   286     0086                     	;# 
   287     0087                     	;# 
   288     008C                     	;# 
   289     008D                     	;# 
   290     008E                     	;# 
   291     0091                     	;# 
   292     0092                     	;# 
   293     0093                     	;# 
   294     0094                     	;# 
   295     0098                     	;# 
   296     0099                     	;# 
   297     009C                     	;# 
   298     009D                     	;# 
   299     009E                     	;# 
   300     009F                     	;# 
   301     010C                     	;# 
   302     010D                     	;# 
   303     010E                     	;# 
   304     010F                     	;# 
   305     018C                     	;# 
   306     018D                     	;# 
   307     0019                     _TXREG	set	25
   308     001A                     _RCREG	set	26
   309     0012                     _T2CONbits	set	18
   310     0011                     _TMR2	set	17
   311     0012                     _T2CON	set	18
   312     0018                     _RCSTA	set	24
   313     0007                     _PORTCbits	set	7
   314     0013                     _SSPBUF	set	19
   315     0014                     _SSPCONbits	set	20
   316     0007                     _PORTC	set	7
   317     0005                     _PORTA	set	5
   318     0018                     _RCSTAbits	set	24
   319     0006                     _PORTB	set	6
   320     0006                     _PORTBbits	set	6
   321     000C                     _PIR1bits	set	12
   322     0010                     _T1CON	set	16
   323     000E                     _TMR1L	set	14
   324     000F                     _TMR1H	set	15
   325     0005                     _PORTAbits	set	5
   326     000B                     _INTCONbits	set	11
   327     0092                     _PR2	set	146
   328     0099                     _SPBRG	set	153
   329     0098                     _TXSTA	set	152
   330     0094                     _SSPSTATbits	set	148
   331     0087                     _TRISCbits	set	135
   332     0087                     _TRISC	set	135
   333     0086                     _TRISB	set	134
   334     0085                     _TRISA	set	133
   335     009F                     _ADCON1	set	159
   336     0081                     _OPTION_REGbits	set	129
   337     008C                     _PIE1bits	set	140
   338                           
   339                           	psect	strings
   340     1000                     __pstrings:
   341     1000                     stringtab:
   342     1000                     __stringtab:
   343                           
   344                           ;	String table - string pointers are 1 byte each
   345     1000  1BFF               	btfsc	btemp+1,7
   346     1001  280A               	ljmp	stringcode
   347     1002  1383               	bcf	3,7
   348     1003  187F               	btfsc	btemp+1,0
   349     1004  1783               	bsf	3,7
   350     1005  0800               	movf	0,w
   351     1006  0A84               	incf	4,f
   352     1007  1903               	skipnz
   353     1008  0AFF               	incf	btemp+1,f
   354     1009  0008               	return
   355     100A                     stringcode:
   356     100A                     stringdir:
   357     100A  3010               	movlw	high stringdir
   358     100B  008A               	movwf	10
   359     100C  0804               	movf	4,w
   360     100D  0A84               	incf	4,f
   361     100E  0782               	addwf	2,f
   362     100F                     __stringbase:
   363     100F  3400               	retlw	0
   364     1010                     __end_of__stringtab:
   365     1010                     STR_5:
   366     1010  3447               	retlw	71	;'G'
   367     1011  342D               	retlw	45	;'-'
   368     1012  344A               	retlw	74	;'J'
   369     1013  3452               	retlw	82	;'R'
   370     1014  344F               	retlw	79	;'O'
   371     1015  3444               	retlw	68	;'D'
   372     1016  3441               	retlw	65	;'A'
   373     1017  3454               	retlw	84	;'T'
   374     1018  3445               	retlw	69	;'E'
   375     1019  3458               	retlw	88	;'X'
   376     101A  3458               	retlw	88	;'X'
   377     101B  3458               	retlw	88	;'X'
   378     101C  3458               	retlw	88	;'X'
   379     101D  3458               	retlw	88	;'X'
   380     101E  3458               	retlw	88	;'X'
   381     101F  3458               	retlw	88	;'X'
   382     1020  3458               	retlw	88	;'X'
   383     1021  3458               	retlw	88	;'X'
   384     1022  3458               	retlw	88	;'X'
   385     1023  3458               	retlw	88	;'X'
   386     1024  3458               	retlw	88	;'X'
   387     1025  340A               	retlw	10
   388     1026  340D               	retlw	13
   389     1027  3400               	retlw	0
   390     1028                     STR_10:
   391     1028  344E               	retlw	78	;'N'
   392     1029  344E               	retlw	78	;'N'
   393     102A  344E               	retlw	78	;'N'
   394     102B  344E               	retlw	78	;'N'
   395     102C  344A               	retlw	74	;'J'
   396     102D  3452               	retlw	82	;'R'
   397     102E  344F               	retlw	79	;'O'
   398     102F  3443               	retlw	67	;'C'
   399     1030  344D               	retlw	77	;'M'
   400     1031  3444               	retlw	68	;'D'
   401     1032  3400               	retlw	0
   402     1033                     STR_12:
   403     1033  344E               	retlw	78	;'N'
   404     1034  344E               	retlw	78	;'N'
   405     1035  344E               	retlw	78	;'N'
   406     1036  344E               	retlw	78	;'N'
   407     1037  344A               	retlw	74	;'J'
   408     1038  3452               	retlw	82	;'R'
   409     1039  344F               	retlw	79	;'O'
   410     103A  3444               	retlw	68	;'D'
   411     103B  3441               	retlw	65	;'A'
   412     103C  3454               	retlw	84	;'T'
   413     103D  3400               	retlw	0
   414     103E                     STR_1:
   415     103E  3447               	retlw	71	;'G'
   416     103F  342D               	retlw	45	;'-'
   417     1040  344A               	retlw	74	;'J'
   418     1041  3452               	retlw	82	;'R'
   419     1042  344F               	retlw	79	;'O'
   420     1043  3444               	retlw	68	;'D'
   421     1044  3441               	retlw	65	;'A'
   422     1045  3454               	retlw	84	;'T'
   423     1046  3445               	retlw	69	;'E'
   424     1047  3400               	retlw	0
   425     1048                     STR_3:
   426     1048  344A               	retlw	74	;'J'
   427     1049  3452               	retlw	82	;'R'
   428     104A  344F               	retlw	79	;'O'
   429     104B  3441               	retlw	65	;'A'
   430     104C  3444               	retlw	68	;'D'
   431     104D  3451               	retlw	81	;'Q'
   432     104E  3400               	retlw	0
   433     1025                     
   434                           	psect	cinit
   435     0015                     start_initialization:	
   436                           ; #config settings
   437                           
   438     0015                     __initialization:
   439                           
   440                           ; Clear objects allocated to BANK0
   441     0015  1383               	bcf	3,7	;select IRP bank0
   442     0016  3020               	movlw	low __pbssBANK0
   443     0017  0084               	movwf	4
   444     0018  304F               	movlw	low (__pbssBANK0+47)
   445     0019  120A  158A  2004  120A  118A  	fcall	clear_ram0
   446                           
   447                           ; Clear objects allocated to BANK1
   448     001E  30A0               	movlw	low __pbssBANK1
   449     001F  0084               	movwf	4
   450     0020  30CD               	movlw	low (__pbssBANK1+45)
   451     0021  120A  158A  2004  120A  118A  	fcall	clear_ram0
   452     0026                     end_of_initialization:	
   453                           ;End of C runtime variable initialization code
   454                           
   455     0026                     __end_of__initialization:
   456     0026  0183               	clrf	3
   457     0027  160A  118A  2A4A   	ljmp	_main	;jump to C main() function
   458                           
   459                           	psect	bssBANK0
   460     0020                     __pbssBANK0:
   461     0020                     _SumData_AUX0:
   462     0020                     	ds	4
   463     0024                     _Data_TS:
   464     0024                     	ds	4
   465     0028                     _Data_TC:
   466     0028                     	ds	4
   467     002C                     _Data_Z:
   468     002C                     	ds	4
   469     0030                     _Data_Y:
   470     0030                     	ds	4
   471     0034                     _Data_X:
   472     0034                     	ds	4
   473     0038                     _SumData_TS:
   474     0038                     	ds	4
   475     003C                     _SumData_TC:
   476     003C                     	ds	4
   477     0040                     _SumData_Z:
   478     0040                     	ds	4
   479     0044                     _SumData_Y:
   480     0044                     	ds	4
   481     0048                     _SumData_X:
   482     0048                     	ds	4
   483     004C                     _ContaSample:
   484     004C                     	ds	1
   485     004D                     _ControlSample:
   486     004D                     	ds	1
   487     004E                     _CmdGPS:
   488     004E                     	ds	1
   489                           
   490                           	psect	bssBANK1
   491     00A0                     __pbssBANK1:
   492     00A0                     _Data_AUX2:
   493     00A0                     	ds	4
   494     00A4                     _Data_AUX1:
   495     00A4                     	ds	4
   496     00A8                     _Data_AUX0:
   497     00A8                     	ds	4
   498     00AC                     _SumData_AUX2:
   499     00AC                     	ds	4
   500     00B0                     _SumData_AUX1:
   501     00B0                     	ds	4
   502     00B4                     _Data_GND:
   503     00B4                     	ds	4
   504     00B8                     _SumData_GND:
   505     00B8                     	ds	4
   506     00BC                     _BufferSPI:
   507     00BC                     	ds	4
   508     00C0                     _BufferDAT:
   509     00C0                     	ds	13
   510                           
   511                           	psect	clrtext
   512     0804                     clear_ram0:	
   513                           ;	Called with FSR containing the base address, and
   514                           ;	W with the last address+1
   515                           
   516     0804  0064               	clrwdt	;clear the watchdog before getting into this loop
   517     0805                     clrloop0:
   518     0805  0180               	clrf	0	;clear RAM location pointed to by FSR
   519     0806  0A84               	incf	4,f	;increment pointer
   520     0807  0604               	xorwf	4,w	;XOR with final address
   521     0808  1903               	btfsc	3,2	;have we reached the end yet?
   522     0809  3400               	retlw	0	;all done for this memory range, return
   523     080A  0604               	xorwf	4,w	;XOR again to restore value
   524     080B  2805               	goto	clrloop0	;do the next byte
   525                           
   526                           	psect	cstackBANK1
   527     00CD                     __pcstackBANK1:
   528     00CD                     ??_ConfigPort_SPI:
   529     00CD                     ??_OpenPort_SPI:	
   530                           ; 1 bytes @ 0x0
   531                           
   532     00CD                     ??_ConfigPort_USART:	
   533                           ; 1 bytes @ 0x0
   534                           
   535     00CD                     ??_OpenPort_USART:	
   536                           ; 1 bytes @ 0x0
   537                           
   538     00CD                     ??_ClosePort_USART:	
   539                           ; 1 bytes @ 0x0
   540                           
   541     00CD                     ??_ClosePort_SPI:	
   542                           ; 1 bytes @ 0x0
   543                           
   544     00CD                     ??_main:	
   545                           ; 1 bytes @ 0x0
   546                           
   547                           
   548                           ; 1 bytes @ 0x0
   549     00CD                     	ds	3
   550                           
   551                           	psect	cstackCOMMON
   552     0070                     __pcstackCOMMON:
   553     0070                     ?_CleanHolding:
   554     0070                     ?_WriteByte_USART:	
   555                           ; 1 bytes @ 0x0
   556                           
   557     0070                     ??_WriteByte_USART:	
   558                           ; 1 bytes @ 0x0
   559                           
   560     0070                     ?_TransmitDAT_USART:	
   561                           ; 1 bytes @ 0x0
   562                           
   563     0070                     ?_ReceiveCMD_USART:	
   564                           ; 1 bytes @ 0x0
   565                           
   566     0070                     ??_ReceiveCMD_USART:	
   567                           ; 1 bytes @ 0x0
   568                           
   569     0070                     ?_TransmitCMD_USART:	
   570                           ; 1 bytes @ 0x0
   571                           
   572     0070                     ?_ResetCS5532:	
   573                           ; 1 bytes @ 0x0
   574                           
   575     0070                     ?_InitCS5532:	
   576                           ; 1 bytes @ 0x0
   577                           
   578     0070                     ?_ReadRegister_4bytesCS5532:	
   579                           ; 1 bytes @ 0x0
   580                           
   581     0070                     ?_TransferByte_SPI:	
   582                           ; 1 bytes @ 0x0
   583                           
   584     0070                     ??_TransferByte_SPI:	
   585                           ; 1 bytes @ 0x0
   586                           
   587     0070                     ?_ConfigPort_SPI:	
   588                           ; 1 bytes @ 0x0
   589                           
   590     0070                     ?_OpenPort_SPI:	
   591                           ; 1 bytes @ 0x0
   592                           
   593     0070                     ?_ConfigPort_USART:	
   594                           ; 1 bytes @ 0x0
   595                           
   596     0070                     ?_OpenPort_USART:	
   597                           ; 1 bytes @ 0x0
   598                           
   599     0070                     ?_ClosePort_USART:	
   600                           ; 1 bytes @ 0x0
   601                           
   602     0070                     ?_ClosePort_SPI:	
   603                           ; 1 bytes @ 0x0
   604                           
   605     0070                     ?_WriteRegister_4bytesCS5532:	
   606                           ; 1 bytes @ 0x0
   607                           
   608     0070                     ?_Interrups:	
   609                           ; 1 bytes @ 0x0
   610                           
   611     0070                     ?_main:	
   612                           ; 1 bytes @ 0x0
   613                           
   614     0070                     ?_ReadByte_USART:	
   615                           ; 1 bytes @ 0x0
   616                           
   617     0070                     ??_ReadByte_USART:	
   618                           ; 1 bytes @ 0x0
   619                           
   620     0070                     ?___aldiv:	
   621                           ; 1 bytes @ 0x0
   622                           
   623     0070                     TransferByte_SPI@data:	
   624                           ; 4 bytes @ 0x0
   625                           
   626     0070                     WriteByte_USART@byte:	
   627                           ; 1 bytes @ 0x0
   628                           
   629     0070                     ReceiveCMD_USART@conta_byte:	
   630                           ; 1 bytes @ 0x0
   631                           
   632     0070                     ___aldiv@divisor:	
   633                           ; 1 bytes @ 0x0
   634                           
   635                           
   636                           ; 4 bytes @ 0x0
   637     0070                     	ds	1
   638     0071                     ?_print_string:
   639     0071                     ?_print_value:	
   640                           ; 1 bytes @ 0x1
   641                           
   642     0071                     ??_ReadRegister_4bytesCS5532:	
   643                           ; 1 bytes @ 0x1
   644                           
   645     0071                     ??_WriteRegister_4bytesCS5532:	
   646                           ; 1 bytes @ 0x1
   647                           
   648     0071                     ReadRegister_4bytesCS5532@command:	
   649                           ; 1 bytes @ 0x1
   650                           
   651     0071                     WriteRegister_4bytesCS5532@command:	
   652                           ; 1 bytes @ 0x1
   653                           
   654     0071                     ReceiveCMD_USART@data_byte:	
   655                           ; 1 bytes @ 0x1
   656                           
   657     0071                     print_string@str:	
   658                           ; 1 bytes @ 0x1
   659                           
   660     0071                     print_value@value:	
   661                           ; 2 bytes @ 0x1
   662                           
   663                           
   664                           ; 4 bytes @ 0x1
   665     0071                     	ds	1
   666     0072                     ??_ResetCS5532:
   667     0072                     ??_InitCS5532:	
   668                           ; 1 bytes @ 0x2
   669                           
   670                           
   671                           ; 1 bytes @ 0x2
   672     0072                     	ds	1
   673     0073                     ??_print_string:
   674     0073                     ??_TransmitDAT_USART:	
   675                           ; 1 bytes @ 0x3
   676                           
   677     0073                     ??_TransmitCMD_USART:	
   678                           ; 1 bytes @ 0x3
   679                           
   680     0073                     TransmitCMD_USART@CMD_ID:	
   681                           ; 1 bytes @ 0x3
   682                           
   683     0073                     TransmitDAT_USART@DAT_ID:	
   684                           ; 1 bytes @ 0x3
   685                           
   686                           
   687                           ; 1 bytes @ 0x3
   688     0073                     	ds	1
   689     0074                     ResetCS5532@conta:
   690     0074                     TransmitDAT_USART@conta:	
   691                           ; 1 bytes @ 0x4
   692                           
   693     0074                     ___aldiv@dividend:	
   694                           ; 1 bytes @ 0x4
   695                           
   696                           
   697                           ; 4 bytes @ 0x4
   698     0074                     	ds	1
   699     0075                     ??_print_value:
   700                           
   701                           ; 1 bytes @ 0x5
   702     0075                     	ds	3
   703     0078                     ??___aldiv:
   704                           
   705                           ; 1 bytes @ 0x8
   706     0078                     	ds	1
   707     0079                     ReadAD24@flag_convert:
   708                           
   709                           ; 1 bytes @ 0x9
   710     0079                     	ds	1
   711     007A                     print_value@Bytes:
   712     007A                     ReadAD24@DataADC:	
   713                           ; 3 bytes @ 0xA
   714                           
   715                           
   716                           ; 4 bytes @ 0xA
   717     007A                     	ds	4
   718                           
   719                           	psect	cstackBANK0
   720     004F                     __pcstackBANK0:
   721     004F                     ___aldiv@counter:
   722                           
   723                           ; 1 bytes @ 0x0
   724     004F                     	ds	1
   725     0050                     ___aldiv@sign:
   726                           
   727                           ; 1 bytes @ 0x1
   728     0050                     	ds	1
   729     0051                     ___aldiv@quotient:
   730                           
   731                           ; 4 bytes @ 0x2
   732     0051                     	ds	4
   733     0055                     ?_ReadAD24:
   734     0055                     ReadAD24@cmd_convert:	
   735                           ; 4 bytes @ 0x6
   736                           
   737                           
   738                           ; 1 bytes @ 0x6
   739     0055                     	ds	4
   740     0059                     ??_ReadAD24:
   741                           
   742                           ; 1 bytes @ 0xA
   743     0059                     	ds	8
   744     0061                     ??_CleanHolding:
   745                           
   746                           ; 1 bytes @ 0x12
   747     0061                     	ds	1
   748     0062                     ??_Interrups:
   749                           
   750                           ; 1 bytes @ 0x13
   751     0062                     	ds	8
   752     006A                     Interrups@ID:
   753                           
   754                           ; 1 bytes @ 0x1B
   755     006A                     	ds	1
   756     006B                     Interrups@conta:
   757                           
   758                           ; 1 bytes @ 0x1C
   759     006B                     	ds	1
   760                           
   761                           	psect	maintext
   762     124A                     __pmaintext:	
   763 ;;
   764 ;;Main: autosize = 0, tempsize = 3, incstack = 0, save=0
   765 ;;
   766 ;; *************** function _main *****************
   767 ;; Defined at:
   768 ;;		line 567 in file "Digitizer24bitsV1.c"
   769 ;; Parameters:    Size  Location     Type
   770 ;;		None
   771 ;; Auto vars:     Size  Location     Type
   772 ;;		None
   773 ;; Return value:  Size  Location     Type
   774 ;;                  1    wreg      void 
   775 ;; Registers used:
   776 ;;		wreg, status,2, status,0, pclath, cstack
   777 ;; Tracked objects:
   778 ;;		On entry : B00/0
   779 ;;		On exit  : 0/0
   780 ;;		Unchanged: 0/0
   781 ;; Data sizes:     COMMON   BANK0   BANK1   BANK3   BANK2
   782 ;;      Params:         0       0       0       0       0
   783 ;;      Locals:         0       0       0       0       0
   784 ;;      Temps:          0       0       3       0       0
   785 ;;      Totals:         0       0       3       0       0
   786 ;;Total ram usage:        3 bytes
   787 ;; Hardware stack levels required when called: 6
   788 ;; This function calls:
   789 ;;		_ClosePort_SPI
   790 ;;		_ClosePort_USART
   791 ;;		_ConfigPort_SPI
   792 ;;		_ConfigPort_USART
   793 ;;		_OpenPort_SPI
   794 ;;		_OpenPort_USART
   795 ;; This function is called by:
   796 ;;		Startup code after reset
   797 ;; This function uses a non-reentrant model
   798 ;;
   799                           
   800     124A                     _main:	
   801                           ;psect for function _main
   802                           
   803     124A                     l3503:	
   804                           ;incstack = 0
   805                           ; Regs used in _main: [wreg+status,2+status,0+pclath+cstack]
   806                           
   807                           
   808                           ;Digitizer24bitsV1.c: 571:     ADCON1 = 0x06;
   809     124A  3006               	movlw	6
   810     124B  1683               	bsf	3,5	;RP0=1, select bank1
   811     124C  1303               	bcf	3,6	;RP1=0, select bank1
   812     124D  009F               	movwf	31	;volatile
   813     124E                     l3505:
   814                           
   815                           ;Digitizer24bitsV1.c: 572:     PORTA = 0;
   816     124E  1283               	bcf	3,5	;RP0=0, select bank0
   817     124F  1303               	bcf	3,6	;RP1=0, select bank0
   818     1250  0185               	clrf	5	;volatile
   819     1251                     l3507:
   820                           
   821                           ;Digitizer24bitsV1.c: 573:     PORTAbits.RA1 = 1;
   822     1251  1485               	bsf	5,1	;volatile
   823     1252                     l3509:
   824                           
   825                           ;Digitizer24bitsV1.c: 574:     PORTB = 0;
   826     1252  0186               	clrf	6	;volatile
   827     1253                     l3511:
   828                           
   829                           ;Digitizer24bitsV1.c: 575:     PORTC = 0;
   830     1253  0187               	clrf	7	;volatile
   831     1254                     l3513:
   832                           
   833                           ;Digitizer24bitsV1.c: 576:     TRISA = 0x01;
   834     1254  3001               	movlw	1
   835     1255  1683               	bsf	3,5	;RP0=1, select bank1
   836     1256  1303               	bcf	3,6	;RP1=0, select bank1
   837     1257  0085               	movwf	5	;volatile
   838     1258                     l3515:
   839                           
   840                           ;Digitizer24bitsV1.c: 577:     TRISB = 0x01;
   841     1258  3001               	movlw	1
   842     1259  0086               	movwf	6	;volatile
   843     125A                     l3517:
   844                           
   845                           ;Digitizer24bitsV1.c: 578:     TRISC = 0x00;
   846     125A  0187               	clrf	7	;volatile
   847     125B                     l3519:
   848                           
   849                           ;Digitizer24bitsV1.c: 579:     OPTION_REGbits.nRBPU = 0;
   850     125B  1381               	bcf	1,7	;volatile
   851                           
   852                           ;Digitizer24bitsV1.c: 580:     _delay((unsigned long)((100)*(9830400UL/4000.0)));
   853     125C  3002               	movlw	2
   854     125D  1683               	bsf	3,5	;RP0=1, select bank1
   855     125E  1303               	bcf	3,6	;RP1=0, select bank1
   856     125F  00CF               	movwf	(??_main^(0+128)+2)
   857     1260  3040               	movlw	64
   858     1261  00CE               	movwf	(??_main^(0+128)+1)
   859     1262  3027               	movlw	39
   860     1263  00CD               	movwf	??_main^(0+128)
   861     1264                     u1297:
   862     1264  0BCD               	decfsz	??_main^(0+128),f
   863     1265  2A64               	goto	u1297
   864     1266  0BCE               	decfsz	(??_main^(0+128)+1),f
   865     1267  2A64               	goto	u1297
   866     1268  0BCF               	decfsz	(??_main^(0+128)+2),f
   867     1269  2A64               	goto	u1297
   868     126A                     l3521:
   869                           
   870                           ;Digitizer24bitsV1.c: 583:     ConfigPort_SPI();
   871     126A  160A  118A  20FC  160A  118A  	fcall	_ConfigPort_SPI
   872                           
   873                           ;Digitizer24bitsV1.c: 584:     OpenPort_SPI();
   874     126F  160A  118A  20EB  160A  118A  	fcall	_OpenPort_SPI
   875     1274                     l3523:
   876                           
   877                           ;Digitizer24bitsV1.c: 587:     ConfigPort_USART();
   878     1274  160A  118A  215A  160A  118A  	fcall	_ConfigPort_USART
   879     1279                     l3525:
   880                           
   881                           ;Digitizer24bitsV1.c: 588:     OpenPort_USART();
   882     1279  120A  158A  2000  160A  118A  	fcall	_OpenPort_USART
   883     127E                     l3527:
   884                           
   885                           ;Digitizer24bitsV1.c: 591:     INTCONbits.PEIE = 1;
   886     127E  170B               	bsf	11,6	;volatile
   887     127F                     l3529:
   888                           
   889                           ;Digitizer24bitsV1.c: 592:     INTCONbits.GIE = 1;
   890     127F  178B               	bsf	11,7	;volatile
   891     1280                     l3531:
   892                           
   893                           ;Digitizer24bitsV1.c: 595:     PORTAbits.RA2 = 0;
   894     1280  1283               	bcf	3,5	;RP0=0, select bank0
   895     1281  1303               	bcf	3,6	;RP1=0, select bank0
   896     1282  1105               	bcf	5,2	;volatile
   897     1283                     l3533:
   898                           
   899                           ;Digitizer24bitsV1.c: 596:     PORTBbits.RB7 = 0;
   900     1283  1386               	bcf	6,7	;volatile
   901     1284                     l3535:
   902                           
   903                           ;Digitizer24bitsV1.c: 597:     PORTBbits.RB6 = 0;
   904     1284  1306               	bcf	6,6	;volatile
   905     1285                     l209:	
   906                           ;Digitizer24bitsV1.c: 599:     while(1);
   907                           
   908     1285                     l210:
   909     1285  2A85               	goto	l209
   910     1286  120A  118A  2812   	ljmp	start
   911     1289                     __end_of_main:
   912                           
   913                           	psect	text1
   914     0800                     __ptext1:	
   915 ;; *************** function _OpenPort_USART *****************
   916 ;; Defined at:
   917 ;;		line 21 in file "LIB16F_USART.c"
   918 ;; Parameters:    Size  Location     Type
   919 ;;		None
   920 ;; Auto vars:     Size  Location     Type
   921 ;;		None
   922 ;; Return value:  Size  Location     Type
   923 ;;                  1    wreg      void 
   924 ;; Registers used:
   925 ;;		None
   926 ;; Tracked objects:
   927 ;;		On entry : 0/0
   928 ;;		On exit  : 0/0
   929 ;;		Unchanged: 0/0
   930 ;; Data sizes:     COMMON   BANK0   BANK1   BANK3   BANK2
   931 ;;      Params:         0       0       0       0       0
   932 ;;      Locals:         0       0       0       0       0
   933 ;;      Temps:          0       0       0       0       0
   934 ;;      Totals:         0       0       0       0       0
   935 ;;Total ram usage:        0 bytes
   936 ;; Hardware stack levels used: 1
   937 ;; Hardware stack levels required when called: 5
   938 ;; This function calls:
   939 ;;		Nothing
   940 ;; This function is called by:
   941 ;;		_main
   942 ;; This function uses a non-reentrant model
   943 ;;
   944                           
   945     0800                     _OpenPort_USART:	
   946                           ;psect for function _OpenPort_USART
   947                           
   948     0800                     l3497:	
   949                           ;incstack = 0
   950                           ; Regs used in _OpenPort_USART: []
   951                           
   952                           
   953                           ;LIB16F_USART.c: 23:     RCSTAbits.SPEN = 1;
   954     0800  1283               	bcf	3,5	;RP0=0, select bank0
   955     0801  1303               	bcf	3,6	;RP1=0, select bank0
   956     0802  1798               	bsf	24,7	;volatile
   957     0803                     l395:	
   958                           ;LIB16F_USART.c: 24:     return;
   959                           
   960     0803  0008               	return
   961     0804                     __end_of_OpenPort_USART:
   962                           
   963                           	psect	text2
   964     10EB                     __ptext2:	
   965 ;; *************** function _OpenPort_SPI *****************
   966 ;; Defined at:
   967 ;;		line 17 in file "LIB16F_SPI.c"
   968 ;; Parameters:    Size  Location     Type
   969 ;;		None
   970 ;; Auto vars:     Size  Location     Type
   971 ;;		None
   972 ;; Return value:  Size  Location     Type
   973 ;;                  1    wreg      void 
   974 ;; Registers used:
   975 ;;		None
   976 ;; Tracked objects:
   977 ;;		On entry : 0/0
   978 ;;		On exit  : 0/0
   979 ;;		Unchanged: 0/0
   980 ;; Data sizes:     COMMON   BANK0   BANK1   BANK3   BANK2
   981 ;;      Params:         0       0       0       0       0
   982 ;;      Locals:         0       0       0       0       0
   983 ;;      Temps:          0       0       0       0       0
   984 ;;      Totals:         0       0       0       0       0
   985 ;;Total ram usage:        0 bytes
   986 ;; Hardware stack levels used: 1
   987 ;; Hardware stack levels required when called: 5
   988 ;; This function calls:
   989 ;;		Nothing
   990 ;; This function is called by:
   991 ;;		_main
   992 ;; This function uses a non-reentrant model
   993 ;;
   994                           
   995     10EB                     _OpenPort_SPI:	
   996                           ;psect for function _OpenPort_SPI
   997                           
   998     10EB                     l3485:	
   999                           ;incstack = 0
  1000                           ; Regs used in _OpenPort_SPI: []
  1001                           
  1002                           
  1003                           ;LIB16F_SPI.c: 19:     SSPCONbits.SSPEN = 1;
  1004     10EB  1283               	bcf	3,5	;RP0=0, select bank0
  1005     10EC  1303               	bcf	3,6	;RP1=0, select bank0
  1006     10ED  1694               	bsf	20,5	;volatile
  1007     10EE                     l282:	
  1008                           ;LIB16F_SPI.c: 20:     return;
  1009                           
  1010     10EE  0008               	return
  1011     10EF                     __end_of_OpenPort_SPI:
  1012                           
  1013                           	psect	text3
  1014     115A                     __ptext3:	
  1015 ;; *************** function _ConfigPort_USART *****************
  1016 ;; Defined at:
  1017 ;;		line 4 in file "LIB16F_USART.c"
  1018 ;; Parameters:    Size  Location     Type
  1019 ;;		None
  1020 ;; Auto vars:     Size  Location     Type
  1021 ;;		None
  1022 ;; Return value:  Size  Location     Type
  1023 ;;                  1    wreg      void 
  1024 ;; Registers used:
  1025 ;;		wreg
  1026 ;; Tracked objects:
  1027 ;;		On entry : 0/0
  1028 ;;		On exit  : 0/0
  1029 ;;		Unchanged: 0/0
  1030 ;; Data sizes:     COMMON   BANK0   BANK1   BANK3   BANK2
  1031 ;;      Params:         0       0       0       0       0
  1032 ;;      Locals:         0       0       0       0       0
  1033 ;;      Temps:          0       0       0       0       0
  1034 ;;      Totals:         0       0       0       0       0
  1035 ;;Total ram usage:        0 bytes
  1036 ;; Hardware stack levels used: 1
  1037 ;; Hardware stack levels required when called: 5
  1038 ;; This function calls:
  1039 ;;		Nothing
  1040 ;; This function is called by:
  1041 ;;		_main
  1042 ;; This function uses a non-reentrant model
  1043 ;;
  1044                           
  1045     115A                     _ConfigPort_USART:	
  1046                           ;psect for function _ConfigPort_USART
  1047                           
  1048     115A                     l3487:	
  1049                           ;incstack = 0
  1050                           ; Regs used in _ConfigPort_USART: [wreg]
  1051                           
  1052                           
  1053                           ;LIB16F_USART.c: 6:     TRISCbits.TRISC6 = 0;
  1054     115A  1683               	bsf	3,5	;RP0=1, select bank1
  1055     115B  1303               	bcf	3,6	;RP1=0, select bank1
  1056     115C  1307               	bcf	7,6	;volatile
  1057                           
  1058                           ;LIB16F_USART.c: 7:     TRISCbits.TRISC7 = 1;
  1059     115D  1787               	bsf	7,7	;volatile
  1060     115E                     l3489:
  1061                           
  1062                           ;LIB16F_USART.c: 9:     TXSTA = 0x24;
  1063     115E  3024               	movlw	36
  1064     115F  0098               	movwf	24	;volatile
  1065                           
  1066                           ;LIB16F_USART.c: 10:     RCSTA = 0x10;
  1067     1160  3010               	movlw	16
  1068     1161  1283               	bcf	3,5	;RP0=0, select bank0
  1069     1162  1303               	bcf	3,6	;RP1=0, select bank0
  1070     1163  0098               	movwf	24	;volatile
  1071                           
  1072                           ;LIB16F_USART.c: 11:     SPBRG = 0x0F;
  1073     1164  300F               	movlw	15
  1074     1165  1683               	bsf	3,5	;RP0=1, select bank1
  1075     1166  1303               	bcf	3,6	;RP1=0, select bank1
  1076     1167  0099               	movwf	25	;volatile
  1077                           
  1078                           ;LIB16F_USART.c: 13:     T2CON = 0x7A;
  1079     1168  307A               	movlw	122
  1080     1169  1283               	bcf	3,5	;RP0=0, select bank0
  1081     116A  1303               	bcf	3,6	;RP1=0, select bank0
  1082     116B  0092               	movwf	18	;volatile
  1083                           
  1084                           ;LIB16F_USART.c: 14:     PR2 = 0xFF;
  1085     116C  30FF               	movlw	255
  1086     116D  1683               	bsf	3,5	;RP0=1, select bank1
  1087     116E  1303               	bcf	3,6	;RP1=0, select bank1
  1088     116F  0092               	movwf	18	;volatile
  1089     1170                     l3491:
  1090                           
  1091                           ;LIB16F_USART.c: 15:     PIR1bits.TMR2IF = 0;
  1092     1170  1283               	bcf	3,5	;RP0=0, select bank0
  1093     1171  1303               	bcf	3,6	;RP1=0, select bank0
  1094     1172  108C               	bcf	12,1	;volatile
  1095     1173                     l3493:
  1096                           
  1097                           ;LIB16F_USART.c: 17:     PIE1bits.RCIE = 1;
  1098     1173  1683               	bsf	3,5	;RP0=1, select bank1
  1099     1174  1303               	bcf	3,6	;RP1=0, select bank1
  1100     1175  168C               	bsf	12,5	;volatile
  1101     1176                     l392:
  1102     1176  0008               	return
  1103     1177                     __end_of_ConfigPort_USART:
  1104                           
  1105                           	psect	text4
  1106     10FC                     __ptext4:	
  1107 ;; *************** function _ConfigPort_SPI *****************
  1108 ;; Defined at:
  1109 ;;		line 4 in file "LIB16F_SPI.c"
  1110 ;; Parameters:    Size  Location     Type
  1111 ;;		None
  1112 ;; Auto vars:     Size  Location     Type
  1113 ;;		None
  1114 ;; Return value:  Size  Location     Type
  1115 ;;                  1    wreg      void 
  1116 ;; Registers used:
  1117 ;;		wreg, status,2, status,0
  1118 ;; Tracked objects:
  1119 ;;		On entry : 0/0
  1120 ;;		On exit  : 0/0
  1121 ;;		Unchanged: 0/0
  1122 ;; Data sizes:     COMMON   BANK0   BANK1   BANK3   BANK2
  1123 ;;      Params:         0       0       0       0       0
  1124 ;;      Locals:         0       0       0       0       0
  1125 ;;      Temps:          0       0       0       0       0
  1126 ;;      Totals:         0       0       0       0       0
  1127 ;;Total ram usage:        0 bytes
  1128 ;; Hardware stack levels used: 1
  1129 ;; Hardware stack levels required when called: 5
  1130 ;; This function calls:
  1131 ;;		Nothing
  1132 ;; This function is called by:
  1133 ;;		_main
  1134 ;; This function uses a non-reentrant model
  1135 ;;
  1136                           
  1137     10FC                     _ConfigPort_SPI:	
  1138                           ;psect for function _ConfigPort_SPI
  1139                           
  1140     10FC                     l3479:	
  1141                           ;incstack = 0
  1142                           ; Regs used in _ConfigPort_SPI: [wreg+status,2+status,0]
  1143                           
  1144                           
  1145                           ;LIB16F_SPI.c: 6:     TRISCbits.TRISC3 = 0;
  1146     10FC  1683               	bsf	3,5	;RP0=1, select bank1
  1147     10FD  1303               	bcf	3,6	;RP1=0, select bank1
  1148     10FE  1187               	bcf	7,3	;volatile
  1149                           
  1150                           ;LIB16F_SPI.c: 7:     TRISCbits.TRISC4 = 1;
  1151     10FF  1607               	bsf	7,4	;volatile
  1152                           
  1153                           ;LIB16F_SPI.c: 8:     TRISCbits.TRISC5 = 0;
  1154     1100  1287               	bcf	7,5	;volatile
  1155                           
  1156                           ;LIB16F_SPI.c: 10:     SSPSTATbits.SMP = 0;
  1157     1101  1394               	bcf	20,7	;volatile
  1158                           
  1159                           ;LIB16F_SPI.c: 11:     SSPSTATbits.CKE = 1;
  1160     1102  1714               	bsf	20,6	;volatile
  1161                           
  1162                           ;LIB16F_SPI.c: 12:     SSPCONbits.CKP = 0;
  1163     1103  1283               	bcf	3,5	;RP0=0, select bank0
  1164     1104  1303               	bcf	3,6	;RP1=0, select bank0
  1165     1105  1214               	bcf	20,4	;volatile
  1166     1106                     l3481:
  1167                           
  1168                           ;LIB16F_SPI.c: 13:     SSPCONbits.SSPM = 0x1;
  1169     1106  0814               	movf	20,w	;volatile
  1170     1107  39F0               	andlw	-16
  1171     1108  3801               	iorlw	1
  1172     1109  0094               	movwf	20	;volatile
  1173     110A                     l279:
  1174     110A  0008               	return
  1175     110B                     __end_of_ConfigPort_SPI:
  1176                           
  1177                           	psect	text5
  1178     10E7                     __ptext5:	
  1179 ;; *************** function _ClosePort_USART *****************
  1180 ;; Defined at:
  1181 ;;		line 27 in file "LIB16F_USART.c"
  1182 ;; Parameters:    Size  Location     Type
  1183 ;;		None
  1184 ;; Auto vars:     Size  Location     Type
  1185 ;;		None
  1186 ;; Return value:  Size  Location     Type
  1187 ;;                  1    wreg      void 
  1188 ;; Registers used:
  1189 ;;		None
  1190 ;; Tracked objects:
  1191 ;;		On entry : 0/0
  1192 ;;		On exit  : 0/0
  1193 ;;		Unchanged: 0/0
  1194 ;; Data sizes:     COMMON   BANK0   BANK1   BANK3   BANK2
  1195 ;;      Params:         0       0       0       0       0
  1196 ;;      Locals:         0       0       0       0       0
  1197 ;;      Temps:          0       0       0       0       0
  1198 ;;      Totals:         0       0       0       0       0
  1199 ;;Total ram usage:        0 bytes
  1200 ;; Hardware stack levels used: 1
  1201 ;; Hardware stack levels required when called: 5
  1202 ;; This function calls:
  1203 ;;		Nothing
  1204 ;; This function is called by:
  1205 ;;		_main
  1206 ;; This function uses a non-reentrant model
  1207 ;;
  1208                           
  1209     10E7                     _ClosePort_USART:	
  1210                           ;psect for function _ClosePort_USART
  1211                           
  1212     10E7                     l3499:	
  1213                           ;incstack = 0
  1214                           ; Regs used in _ClosePort_USART: []
  1215                           
  1216                           
  1217                           ;LIB16F_USART.c: 29:     RCSTAbits.SPEN = 0;
  1218     10E7  1283               	bcf	3,5	;RP0=0, select bank0
  1219     10E8  1303               	bcf	3,6	;RP1=0, select bank0
  1220     10E9  1398               	bcf	24,7	;volatile
  1221     10EA                     l398:	
  1222                           ;LIB16F_USART.c: 30:     return;
  1223                           
  1224     10EA  0008               	return
  1225     10EB                     __end_of_ClosePort_USART:
  1226                           
  1227                           	psect	text6
  1228     10E3                     __ptext6:	
  1229 ;; *************** function _ClosePort_SPI *****************
  1230 ;; Defined at:
  1231 ;;		line 23 in file "LIB16F_SPI.c"
  1232 ;; Parameters:    Size  Location     Type
  1233 ;;		None
  1234 ;; Auto vars:     Size  Location     Type
  1235 ;;		None
  1236 ;; Return value:  Size  Location     Type
  1237 ;;                  1    wreg      void 
  1238 ;; Registers used:
  1239 ;;		None
  1240 ;; Tracked objects:
  1241 ;;		On entry : 0/0
  1242 ;;		On exit  : 0/0
  1243 ;;		Unchanged: 0/0
  1244 ;; Data sizes:     COMMON   BANK0   BANK1   BANK3   BANK2
  1245 ;;      Params:         0       0       0       0       0
  1246 ;;      Locals:         0       0       0       0       0
  1247 ;;      Temps:          0       0       0       0       0
  1248 ;;      Totals:         0       0       0       0       0
  1249 ;;Total ram usage:        0 bytes
  1250 ;; Hardware stack levels used: 1
  1251 ;; Hardware stack levels required when called: 5
  1252 ;; This function calls:
  1253 ;;		Nothing
  1254 ;; This function is called by:
  1255 ;;		_main
  1256 ;; This function uses a non-reentrant model
  1257 ;;
  1258                           
  1259     10E3                     _ClosePort_SPI:	
  1260                           ;psect for function _ClosePort_SPI
  1261                           
  1262     10E3                     l3501:	
  1263                           ;incstack = 0
  1264                           ; Regs used in _ClosePort_SPI: []
  1265                           
  1266                           
  1267                           ;LIB16F_SPI.c: 25:     SSPCONbits.SSPEN = 0;
  1268     10E3  1283               	bcf	3,5	;RP0=0, select bank0
  1269     10E4  1303               	bcf	3,6	;RP1=0, select bank0
  1270     10E5  1294               	bcf	20,5	;volatile
  1271     10E6                     l285:	
  1272                           ;LIB16F_SPI.c: 26:     return;
  1273                           
  1274     10E6  0008               	return
  1275     10E7                     __end_of_ClosePort_SPI:
  1276                           
  1277                           	psect	text7
  1278     15B1                     __ptext7:	
  1279 ;; *************** function _Interrups *****************
  1280 ;; Defined at:
  1281 ;;		line 10 in file "Digitizer24bitsV1.c"
  1282 ;; Parameters:    Size  Location     Type
  1283 ;;		None
  1284 ;; Auto vars:     Size  Location     Type
  1285 ;;  conta           1   28[BANK0 ] unsigned char 
  1286 ;;  ID              1   27[BANK0 ] unsigned char 
  1287 ;; Return value:  Size  Location     Type
  1288 ;;                  1    wreg      void 
  1289 ;; Registers used:
  1290 ;;		wreg, fsr0l, fsr0h, status,2, status,0, btemp+1, pclath, cstack
  1291 ;; Tracked objects:
  1292 ;;		On entry : 0/0
  1293 ;;		On exit  : 0/0
  1294 ;;		Unchanged: 0/0
  1295 ;; Data sizes:     COMMON   BANK0   BANK1   BANK3   BANK2
  1296 ;;      Params:         0       0       0       0       0
  1297 ;;      Locals:         0       2       0       0       0
  1298 ;;      Temps:          0       8       0       0       0
  1299 ;;      Totals:         0      10       0       0       0
  1300 ;;Total ram usage:       10 bytes
  1301 ;; Hardware stack levels used: 1
  1302 ;; Hardware stack levels required when called: 4
  1303 ;; This function calls:
  1304 ;;		_CleanHolding
  1305 ;;		_InitCS5532
  1306 ;;		_ReadAD24
  1307 ;;		_ReadRegister_4bytesCS5532
  1308 ;;		_ReceiveCMD_USART
  1309 ;;		_ResetCS5532
  1310 ;;		_TransferByte_SPI
  1311 ;;		_TransmitCMD_USART
  1312 ;;		_TransmitDAT_USART
  1313 ;;		_WriteByte_USART
  1314 ;;		___aldiv
  1315 ;;		_print_string
  1316 ;;		_print_value
  1317 ;; This function is called by:
  1318 ;;		Interrupt level 1
  1319 ;; This function uses a non-reentrant model
  1320 ;;
  1321                           
  1322     15B1                     _Interrups:	
  1323                           ;psect for function _Interrups
  1324                           
  1325     15B1                     i1l2505:
  1326                           
  1327                           ;Digitizer24bitsV1.c: 11:     unsigned char ID, conta;;Digitizer24bitsV1.c: 13:     if((
      +                          INTCONbits.INTF == 1) && (INTCONbits.INTE == 1)){
  1328     15B1  1C8B               	btfss	11,1	;volatile
  1329     15B2  2DB4               	goto	u95_21
  1330     15B3  2DB7               	goto	u95_20
  1331     15B4                     u95_21:
  1332     15B4  120A  118A  2E43   	goto	i1l125
  1333     15B7                     u95_20:
  1334     15B7                     i1l2507:
  1335     15B7  1E0B               	btfss	11,4	;volatile
  1336     15B8  2DBA               	goto	u96_21
  1337     15B9  2DBB               	goto	u96_20
  1338     15BA                     u96_21:
  1339     15BA  2DB4               	goto	u95_21
  1340     15BB                     u96_20:
  1341     15BB                     i1l2509:
  1342                           
  1343                           ;Digitizer24bitsV1.c: 14:         INTCONbits.INTF = 0;
  1344     15BB  108B               	bcf	11,1	;volatile
  1345                           
  1346                           ;Digitizer24bitsV1.c: 15:         INTCONbits.INTE = 0;
  1347     15BC  120B               	bcf	11,4	;volatile
  1348                           
  1349                           ;Digitizer24bitsV1.c: 17:         switch(CmdGPS){
  1350     15BD  120A  118A  2E2D   	goto	i1l2757
  1351     15C0                     i1l2511:
  1352                           
  1353                           ;Digitizer24bitsV1.c: 19:                 if(ControlSample == 1){
  1354     15C0  034D               	decf	_ControlSample,w
  1355     15C1  1D03               	btfss	3,2
  1356     15C2  2DC4               	goto	u97_21
  1357     15C3  2DC7               	goto	u97_20
  1358     15C4                     u97_21:
  1359     15C4  120A  118A  2DF6   	goto	i1l150
  1360     15C7                     u97_20:
  1361     15C7                     i1l2513:
  1362                           
  1363                           ;Digitizer24bitsV1.c: 21:                     PORTAbits.RA2 = 1;
  1364     15C7  1505               	bsf	5,2	;volatile
  1365     15C8                     i1l2515:
  1366                           
  1367                           ;Digitizer24bitsV1.c: 24:                     TMR1H = 0x10;
  1368     15C8  3010               	movlw	16
  1369     15C9  008F               	movwf	15	;volatile
  1370                           
  1371                           ;Digitizer24bitsV1.c: 25:                     TMR1L = 0x06;
  1372     15CA  3006               	movlw	6
  1373     15CB  008E               	movwf	14	;volatile
  1374                           
  1375                           ;Digitizer24bitsV1.c: 26:                     T1CON = 0x31;
  1376     15CC  3031               	movlw	49
  1377     15CD  0090               	movwf	16	;volatile
  1378     15CE                     i1l2517:
  1379                           
  1380                           ;Digitizer24bitsV1.c: 27:                     PIR1bits.TMR1IF = 0;
  1381     15CE  100C               	bcf	12,0	;volatile
  1382     15CF                     i1l2519:
  1383                           
  1384                           ;Digitizer24bitsV1.c: 28:                     PIE1bits.TMR1IE = 1;
  1385     15CF  1683               	bsf	3,5	;RP0=1, select bank1
  1386     15D0  1303               	bcf	3,6	;RP1=0, select bank1
  1387     15D1  140C               	bsf	12,0	;volatile
  1388     15D2                     i1l2521:
  1389                           
  1390                           ;Digitizer24bitsV1.c: 31:                     ContaSample = 0;
  1391     15D2  1283               	bcf	3,5	;RP0=0, select bank0
  1392     15D3  1303               	bcf	3,6	;RP1=0, select bank0
  1393     15D4  01CC               	clrf	_ContaSample
  1394     15D5                     i1l2523:
  1395                           
  1396                           ;Digitizer24bitsV1.c: 34:                     PORTBbits.RB7 = 1;
  1397     15D5  1786               	bsf	6,7	;volatile
  1398     15D6                     i1l2525:
  1399                           
  1400                           ;Digitizer24bitsV1.c: 36:                     PORTBbits.RB7 = 0;
  1401     15D6  1386               	bcf	6,7	;volatile
  1402     15D7                     i1l2527:
  1403                           
  1404                           ;Digitizer24bitsV1.c: 39:                     print_string("G-JRODATE");
  1405     15D7  302F               	movlw	(low ((STR_1-__stringbase)| (0+32768)))& (0+255)
  1406     15D8  00F1               	movwf	print_string@str
  1407     15D9  3080               	movlw	128
  1408     15DA  00F2               	movwf	print_string@str+1
  1409     15DB  160A  118A  2195  160A  118A  	fcall	_print_string
  1410     15E0                     i1l2529:
  1411                           
  1412                           ;Digitizer24bitsV1.c: 40:                     print_string(BufferDAT);
  1413     15E0  30C0               	movlw	(low (_BufferDAT| 0))& (0+255)
  1414     15E1  00F1               	movwf	print_string@str
  1415     15E2  3000               	movlw	0
  1416     15E3  00F2               	movwf	print_string@str+1
  1417     15E4  160A  118A  2195  160A  118A  	fcall	_print_string
  1418     15E9                     i1l2531:
  1419                           
  1420                           ;Digitizer24bitsV1.c: 41:                     print_string("\n\r");
  1421     15E9  3016               	movlw	(low (((STR_5+21)-__stringbase)| (0+32768)))& (0+255)
  1422     15EA  00F1               	movwf	print_string@str
  1423     15EB  3080               	movlw	128
  1424     15EC  00F2               	movwf	print_string@str+1
  1425     15ED  160A  118A  2195  160A  118A  	fcall	_print_string
  1426     15F2                     i1l2533:
  1427                           
  1428                           ;Digitizer24bitsV1.c: 45:                     CleanHolding();
  1429     15F2  160A  118A  212B  160A  118A  	fcall	_CleanHolding
  1430     15F7                     i1l2535:
  1431                           
  1432                           ;Digitizer24bitsV1.c: 47:                     PORTB = 0x38;
  1433     15F7  3038               	movlw	56
  1434     15F8  1283               	bcf	3,5	;RP0=0, select bank0
  1435     15F9  1303               	bcf	3,6	;RP1=0, select bank0
  1436     15FA  0086               	movwf	6	;volatile
  1437     15FB                     i1l2537:
  1438                           
  1439                           ;Digitizer24bitsV1.c: 48:                     PORTBbits.RB7 = 1;
  1440     15FB  1786               	bsf	6,7	;volatile
  1441     15FC                     i1l2539:
  1442                           
  1443                           ;Digitizer24bitsV1.c: 49:                     _delay((unsigned long)((7)*(9830400UL/4000
      +                          .0)));
  1444     15FC  3017               	movlw	23
  1445     15FD  1283               	bcf	3,5	;RP0=0, select bank0
  1446     15FE  1303               	bcf	3,6	;RP1=0, select bank0
  1447     15FF  00E3               	movwf	??_Interrups+1
  1448     1600  3055               	movlw	85
  1449     1601  00E2               	movwf	??_Interrups
  1450     1602                     u130_27:
  1451     1602  0BE2               	decfsz	??_Interrups,f
  1452     1603  2E02               	goto	u130_27
  1453     1604  0BE3               	decfsz	??_Interrups+1,f
  1454     1605  2E02               	goto	u130_27
  1455     1606  0000               	nop
  1456     1607                     i1l2541:
  1457                           
  1458                           ;Digitizer24bitsV1.c: 50:                     SumData_X = 0;
  1459     1607  3000               	movlw	0
  1460     1608  1283               	bcf	3,5	;RP0=0, select bank0
  1461     1609  1303               	bcf	3,6	;RP1=0, select bank0
  1462     160A  00CB               	movwf	_SumData_X+3
  1463     160B  3000               	movlw	0
  1464     160C  00CA               	movwf	_SumData_X+2
  1465     160D  3000               	movlw	0
  1466     160E  00C9               	movwf	_SumData_X+1
  1467     160F  3000               	movlw	0
  1468     1610  00C8               	movwf	_SumData_X
  1469     1611                     i1l2543:
  1470                           
  1471                           ;Digitizer24bitsV1.c: 51:                     ReadAD24(0,0x00);
  1472     1611  01D5               	clrf	ReadAD24@cmd_convert
  1473     1612  3000               	movlw	0
  1474     1613  160A  118A  23DE  160A  118A  	fcall	_ReadAD24
  1475     1618                     i1l2545:
  1476                           
  1477                           ;Digitizer24bitsV1.c: 52:                     for(conta=0; conta<5; conta++){
  1478     1618  1283               	bcf	3,5	;RP0=0, select bank0
  1479     1619  1303               	bcf	3,6	;RP1=0, select bank0
  1480     161A  01EB               	clrf	Interrups@conta
  1481     161B                     i1l2547:
  1482     161B  3005               	movlw	5
  1483     161C  026B               	subwf	Interrups@conta,w
  1484     161D  1C03               	skipc
  1485     161E  2E20               	goto	u98_21
  1486     161F  2E21               	goto	u98_20
  1487     1620                     u98_21:
  1488     1620  2E22               	goto	i1l2551
  1489     1621                     u98_20:
  1490     1621  2E5B               	goto	i1l130
  1491     1622                     i1l2551:
  1492                           
  1493                           ;Digitizer24bitsV1.c: 53:                         Data_X = ReadAD24(1,0x00);
  1494     1622  01D5               	clrf	ReadAD24@cmd_convert
  1495     1623  3001               	movlw	1
  1496     1624  160A  118A  23DE  160A  118A  	fcall	_ReadAD24
  1497     1629  1283               	bcf	3,5	;RP0=0, select bank0
  1498     162A  1303               	bcf	3,6	;RP1=0, select bank0
  1499     162B  0858               	movf	?_ReadAD24+3,w
  1500     162C  00B7               	movwf	_Data_X+3
  1501     162D  0857               	movf	?_ReadAD24+2,w
  1502     162E  00B6               	movwf	_Data_X+2
  1503     162F  0856               	movf	?_ReadAD24+1,w
  1504     1630  00B5               	movwf	_Data_X+1
  1505     1631  0855               	movf	?_ReadAD24,w
  1506     1632  00B4               	movwf	_Data_X
  1507     1633                     i1l2553:
  1508                           
  1509                           ;Digitizer24bitsV1.c: 54:                         SumData_X = SumData_X + Data_X;
  1510     1633  0848               	movf	_SumData_X,w
  1511     1634  0734               	addwf	_Data_X,w
  1512     1635  00E2               	movwf	??_Interrups
  1513     1636  3000               	movlw	0
  1514     1637  1803               	skipnc
  1515     1638  3001               	movlw	1
  1516     1639  0749               	addwf	_SumData_X+1,w
  1517     163A  01E4               	clrf	??_Interrups+2
  1518     163B  1803               	skipnc
  1519     163C  0AE4               	incf	??_Interrups+2,f
  1520     163D  0735               	addwf	_Data_X+1,w
  1521     163E  00E3               	movwf	??_Interrups+1
  1522     163F  1803               	skipnc
  1523     1640  0AE4               	incf	??_Interrups+2,f
  1524     1641  084A               	movf	_SumData_X+2,w
  1525     1642  0764               	addwf	??_Interrups+2,w
  1526     1643  01E5               	clrf	??_Interrups+3
  1527     1644  1803               	skipnc
  1528     1645  0AE5               	incf	??_Interrups+3,f
  1529     1646  0736               	addwf	_Data_X+2,w
  1530     1647  00E4               	movwf	??_Interrups+2
  1531     1648  1803               	skipnc
  1532     1649  0AE5               	incf	??_Interrups+3,f
  1533     164A  084B               	movf	_SumData_X+3,w
  1534     164B  0765               	addwf	??_Interrups+3,w
  1535     164C  0737               	addwf	_Data_X+3,w
  1536     164D  00E5               	movwf	??_Interrups+3
  1537     164E  0865               	movf	??_Interrups+3,w
  1538     164F  00CB               	movwf	_SumData_X+3
  1539     1650  0864               	movf	??_Interrups+2,w
  1540     1651  00CA               	movwf	_SumData_X+2
  1541     1652  0863               	movf	??_Interrups+1,w
  1542     1653  00C9               	movwf	_SumData_X+1
  1543     1654  0862               	movf	??_Interrups,w
  1544     1655  00C8               	movwf	_SumData_X
  1545     1656                     i1l2555:
  1546                           
  1547                           ;Digitizer24bitsV1.c: 55:                     }
  1548     1656  3001               	movlw	1
  1549     1657  00FF               	movwf	btemp+1
  1550     1658  087F               	movf	btemp+1,w
  1551     1659  07EB               	addwf	Interrups@conta,f
  1552     165A  2E1B               	goto	i1l2547
  1553     165B                     i1l130:
  1554                           
  1555                           ;Digitizer24bitsV1.c: 56:                     PORTBbits.RB7 = 0;
  1556     165B  1386               	bcf	6,7	;volatile
  1557     165C                     i1l2559:
  1558                           
  1559                           ;Digitizer24bitsV1.c: 58:                     CleanHolding();
  1560     165C  160A  118A  212B  160A  118A  	fcall	_CleanHolding
  1561     1661                     i1l2561:
  1562                           
  1563                           ;Digitizer24bitsV1.c: 60:                     PORTB = 0x18;
  1564     1661  3018               	movlw	24
  1565     1662  1283               	bcf	3,5	;RP0=0, select bank0
  1566     1663  1303               	bcf	3,6	;RP1=0, select bank0
  1567     1664  0086               	movwf	6	;volatile
  1568     1665                     i1l2563:
  1569                           
  1570                           ;Digitizer24bitsV1.c: 61:                     _delay((unsigned long)((7)*(9830400UL/4000
      +                          .0)));
  1571     1665  3017               	movlw	23
  1572     1666  1283               	bcf	3,5	;RP0=0, select bank0
  1573     1667  1303               	bcf	3,6	;RP1=0, select bank0
  1574     1668  00E3               	movwf	??_Interrups+1
  1575     1669  3055               	movlw	85
  1576     166A  00E2               	movwf	??_Interrups
  1577     166B                     u131_27:
  1578     166B  0BE2               	decfsz	??_Interrups,f
  1579     166C  2E6B               	goto	u131_27
  1580     166D  0BE3               	decfsz	??_Interrups+1,f
  1581     166E  2E6B               	goto	u131_27
  1582     166F  0000               	nop
  1583     1670                     i1l2565:
  1584                           
  1585                           ;Digitizer24bitsV1.c: 62:                     SumData_Y = 0;
  1586     1670  3000               	movlw	0
  1587     1671  1283               	bcf	3,5	;RP0=0, select bank0
  1588     1672  1303               	bcf	3,6	;RP1=0, select bank0
  1589     1673  00C7               	movwf	_SumData_Y+3
  1590     1674  3000               	movlw	0
  1591     1675  00C6               	movwf	_SumData_Y+2
  1592     1676  3000               	movlw	0
  1593     1677  00C5               	movwf	_SumData_Y+1
  1594     1678  3000               	movlw	0
  1595     1679  00C4               	movwf	_SumData_Y
  1596     167A                     i1l2567:
  1597                           
  1598                           ;Digitizer24bitsV1.c: 63:                     ReadAD24(0,0x00);
  1599     167A  01D5               	clrf	ReadAD24@cmd_convert
  1600     167B  3000               	movlw	0
  1601     167C  160A  118A  23DE  160A  118A  	fcall	_ReadAD24
  1602     1681                     i1l2569:
  1603                           
  1604                           ;Digitizer24bitsV1.c: 64:                     for(conta=0; conta<5; conta++){
  1605     1681  1283               	bcf	3,5	;RP0=0, select bank0
  1606     1682  1303               	bcf	3,6	;RP1=0, select bank0
  1607     1683  01EB               	clrf	Interrups@conta
  1608     1684                     i1l2571:
  1609     1684  3005               	movlw	5
  1610     1685  026B               	subwf	Interrups@conta,w
  1611     1686  1C03               	skipc
  1612     1687  2E89               	goto	u99_21
  1613     1688  2E8A               	goto	u99_20
  1614     1689                     u99_21:
  1615     1689  2E8D               	goto	i1l2575
  1616     168A                     u99_20:
  1617     168A  120A  158A  2938   	goto	i1l2583
  1618     168D                     i1l2575:
  1619                           
  1620                           ;Digitizer24bitsV1.c: 65:                         Data_Y = ReadAD24(1,0x00);
  1621     168D  01D5               	clrf	ReadAD24@cmd_convert
  1622     168E  3001               	movlw	1
  1623     168F  160A  118A  23DE  160A  118A  	fcall	_ReadAD24
  1624     1694  1283               	bcf	3,5	;RP0=0, select bank0
  1625     1695  1303               	bcf	3,6	;RP1=0, select bank0
  1626     1696  0858               	movf	?_ReadAD24+3,w
  1627     1697  00B3               	movwf	_Data_Y+3
  1628     1698  0857               	movf	?_ReadAD24+2,w
  1629     1699  00B2               	movwf	_Data_Y+2
  1630     169A  0856               	movf	?_ReadAD24+1,w
  1631     169B  00B1               	movwf	_Data_Y+1
  1632     169C  0855               	movf	?_ReadAD24,w
  1633     169D  00B0               	movwf	_Data_Y
  1634     169E                     i1l2577:
  1635                           
  1636                           ;Digitizer24bitsV1.c: 66:                         SumData_Y = SumData_Y + Data_Y;
  1637     169E  0844               	movf	_SumData_Y,w
  1638     169F  0730               	addwf	_Data_Y,w
  1639     16A0  00E2               	movwf	??_Interrups
  1640     16A1  3000               	movlw	0
  1641     16A2  1803               	skipnc
  1642     16A3  3001               	movlw	1
  1643     16A4  0745               	addwf	_SumData_Y+1,w
  1644     16A5  01E4               	clrf	??_Interrups+2
  1645     16A6  1803               	skipnc
  1646     16A7  0AE4               	incf	??_Interrups+2,f
  1647     16A8  0731               	addwf	_Data_Y+1,w
  1648     16A9  00E3               	movwf	??_Interrups+1
  1649     16AA  1803               	skipnc
  1650     16AB  0AE4               	incf	??_Interrups+2,f
  1651     16AC  0846               	movf	_SumData_Y+2,w
  1652     16AD  0764               	addwf	??_Interrups+2,w
  1653     16AE  01E5               	clrf	??_Interrups+3
  1654     16AF  1803               	skipnc
  1655     16B0  0AE5               	incf	??_Interrups+3,f
  1656     16B1  0732               	addwf	_Data_Y+2,w
  1657     16B2  00E4               	movwf	??_Interrups+2
  1658     16B3  1803               	skipnc
  1659     16B4  0AE5               	incf	??_Interrups+3,f
  1660     16B5  0847               	movf	_SumData_Y+3,w
  1661     16B6  0765               	addwf	??_Interrups+3,w
  1662     16B7  0733               	addwf	_Data_Y+3,w
  1663     16B8  00E5               	movwf	??_Interrups+3
  1664     16B9  0865               	movf	??_Interrups+3,w
  1665     16BA  00C7               	movwf	_SumData_Y+3
  1666     16BB  0864               	movf	??_Interrups+2,w
  1667     16BC  00C6               	movwf	_SumData_Y+2
  1668     16BD  0863               	movf	??_Interrups+1,w
  1669     16BE  00C5               	movwf	_SumData_Y+1
  1670     16BF  0862               	movf	??_Interrups,w
  1671     16C0  00C4               	movwf	_SumData_Y
  1672     16C1                     i1l2579:
  1673                           
  1674                           ;Digitizer24bitsV1.c: 67:                     }
  1675     16C1  3001               	movlw	1
  1676     16C2  00FF               	movwf	btemp+1
  1677     16C3  087F               	movf	btemp+1,w
  1678     16C4  07EB               	addwf	Interrups@conta,f
  1679     16C5  2E84               	goto	i1l2571
  1680                           
  1681                           	psect	intentry
  1682     0004                     __pintentry:	
  1683                           ;incstack = 0
  1684                           ; Regs used in _Interrups: [wreg-fsr0h+status,2+status,0+btemp+1+pclath+cstack]
  1685                           
  1686     0004                     interrupt_function:
  1687     007E                     saved_w	set	btemp
  1688     0004  00FE               	movwf	btemp
  1689     0005  0E03               	swapf	3,w
  1690     0006  1283               	bcf	3,5	;RP0=0, select bank0
  1691     0007  1303               	bcf	3,6	;RP1=0, select bank0
  1692     0008  00E6               	movwf	??_Interrups+4
  1693     0009  0804               	movf	4,w
  1694     000A  00E7               	movwf	??_Interrups+5
  1695     000B  080A               	movf	10,w
  1696     000C  00E8               	movwf	??_Interrups+6
  1697     000D  087F               	movf	btemp+1,w
  1698     000E  00E9               	movwf	??_Interrups+7
  1699     000F  160A  118A  2DB1   	ljmp	_Interrups
  1700                           
  1701                           	psect	text8
  1702     120F                     __ptext8:	
  1703 ;; *************** function _print_value *****************
  1704 ;; Defined at:
  1705 ;;		line 145 in file "LIB16F_USART.c"
  1706 ;; Parameters:    Size  Location     Type
  1707 ;;  value           4    1[COMMON] long 
  1708 ;; Auto vars:     Size  Location     Type
  1709 ;;  Bytes           3   10[COMMON] unsigned char [3]
  1710 ;; Return value:  Size  Location     Type
  1711 ;;                  1    wreg      void 
  1712 ;; Registers used:
  1713 ;;		wreg, status,2, status,0, pclath, cstack
  1714 ;; Tracked objects:
  1715 ;;		On entry : 0/0
  1716 ;;		On exit  : 0/0
  1717 ;;		Unchanged: 0/0
  1718 ;; Data sizes:     COMMON   BANK0   BANK1   BANK3   BANK2
  1719 ;;      Params:         4       0       0       0       0
  1720 ;;      Locals:         3       0       0       0       0
  1721 ;;      Temps:          5       0       0       0       0
  1722 ;;      Totals:        12       0       0       0       0
  1723 ;;Total ram usage:       12 bytes
  1724 ;; Hardware stack levels used: 1
  1725 ;; Hardware stack levels required when called: 1
  1726 ;; This function calls:
  1727 ;;		_WriteByte_USART
  1728 ;; This function is called by:
  1729 ;;		_Interrups
  1730 ;; This function uses a non-reentrant model
  1731 ;;
  1732                           
  1733     120F                     _print_value:	
  1734                           ;psect for function _print_value
  1735                           
  1736     120F                     i1l2351:	
  1737                           ;incstack = 0
  1738                           ; Regs used in _print_value: [wreg+status,2+status,0+pclath+cstack]
  1739                           
  1740                           
  1741                           ;LIB16F_USART.c: 147:     char Bytes[3];;LIB16F_USART.c: 150:     Bytes[2] = (char) ((va
      +                          lue&0x00FF0000)>>16);
  1742     120F  0871               	movf	print_value@value,w
  1743     1210  00F5               	movwf	??_print_value
  1744     1211  0872               	movf	print_value@value+1,w
  1745     1212  00F6               	movwf	??_print_value+1
  1746     1213  0873               	movf	print_value@value+2,w
  1747     1214  00F7               	movwf	??_print_value+2
  1748     1215  0874               	movf	print_value@value+3,w
  1749     1216  00F8               	movwf	??_print_value+3
  1750     1217  3010               	movlw	16
  1751     1218  00F9               	movwf	??_print_value+4
  1752     1219                     u85_25:
  1753     1219  0D78               	rlf	??_print_value+3,w
  1754     121A  0CF8               	rrf	??_print_value+3,f
  1755     121B  0CF7               	rrf	??_print_value+2,f
  1756     121C  0CF6               	rrf	??_print_value+1,f
  1757     121D  0CF5               	rrf	??_print_value,f
  1758     121E                     u85_20:
  1759     121E  0BF9               	decfsz	??_print_value+4,f
  1760     121F  2A19               	goto	u85_25
  1761     1220  0875               	movf	??_print_value,w
  1762     1221  00FC               	movwf	print_value@Bytes+2
  1763                           
  1764                           ;LIB16F_USART.c: 152:     Bytes[1] = (char) ((value&0x0000FF00)>>8);
  1765     1222  0871               	movf	print_value@value,w
  1766     1223  00F5               	movwf	??_print_value
  1767     1224  0872               	movf	print_value@value+1,w
  1768     1225  00F6               	movwf	??_print_value+1
  1769     1226  0873               	movf	print_value@value+2,w
  1770     1227  00F7               	movwf	??_print_value+2
  1771     1228  0874               	movf	print_value@value+3,w
  1772     1229  00F8               	movwf	??_print_value+3
  1773     122A  3008               	movlw	8
  1774     122B  00F9               	movwf	??_print_value+4
  1775     122C                     u86_25:
  1776     122C  0D78               	rlf	??_print_value+3,w
  1777     122D  0CF8               	rrf	??_print_value+3,f
  1778     122E  0CF7               	rrf	??_print_value+2,f
  1779     122F  0CF6               	rrf	??_print_value+1,f
  1780     1230  0CF5               	rrf	??_print_value,f
  1781     1231                     u86_20:
  1782     1231  0BF9               	decfsz	??_print_value+4,f
  1783     1232  2A2C               	goto	u86_25
  1784     1233  0875               	movf	??_print_value,w
  1785     1234  00FB               	movwf	print_value@Bytes+1
  1786     1235                     i1l2353:
  1787                           
  1788                           ;LIB16F_USART.c: 154:     Bytes[0] = (char) ((value&0x000000FF)>>0);
  1789     1235  0871               	movf	print_value@value,w
  1790     1236  00FA               	movwf	print_value@Bytes
  1791     1237                     i1l2355:
  1792                           
  1793                           ;LIB16F_USART.c: 157:     WriteByte_USART(Bytes[0]);
  1794     1237  087A               	movf	print_value@Bytes,w
  1795     1238  160A  118A  20EF  160A  118A  	fcall	_WriteByte_USART
  1796     123D                     i1l2357:
  1797                           
  1798                           ;LIB16F_USART.c: 158:     WriteByte_USART(Bytes[1]);
  1799     123D  087B               	movf	print_value@Bytes+1,w
  1800     123E  160A  118A  20EF  160A  118A  	fcall	_WriteByte_USART
  1801     1243                     i1l2359:
  1802                           
  1803                           ;LIB16F_USART.c: 159:     WriteByte_USART(Bytes[2]);
  1804     1243  087C               	movf	print_value@Bytes+2,w
  1805     1244  160A  118A  20EF  160A  118A  	fcall	_WriteByte_USART
  1806     1249                     i1l439:
  1807     1249  0008               	return
  1808     124A                     __end_of_print_value:
  1809                           
  1810                           	psect	text9
  1811     07CF                     __ptext9:	
  1812 ;; *************** function _TransmitDAT_USART *****************
  1813 ;; Defined at:
  1814 ;;		line 133 in file "LIB16F_USART.c"
  1815 ;; Parameters:    Size  Location     Type
  1816 ;;  DAT_ID          1    wreg     unsigned char 
  1817 ;; Auto vars:     Size  Location     Type
  1818 ;;  DAT_ID          1    3[COMMON] unsigned char 
  1819 ;;  conta           1    4[COMMON] unsigned char 
  1820 ;; Return value:  Size  Location     Type
  1821 ;;                  1    wreg      void 
  1822 ;; Registers used:
  1823 ;;		wreg, fsr0l, fsr0h, status,2, status,0, btemp+1, pclath, cstack
  1824 ;; Tracked objects:
  1825 ;;		On entry : 0/0
  1826 ;;		On exit  : 0/0
  1827 ;;		Unchanged: 0/0
  1828 ;; Data sizes:     COMMON   BANK0   BANK1   BANK3   BANK2
  1829 ;;      Params:         0       0       0       0       0
  1830 ;;      Locals:         2       0       0       0       0
  1831 ;;      Temps:          0       0       0       0       0
  1832 ;;      Totals:         2       0       0       0       0
  1833 ;;Total ram usage:        2 bytes
  1834 ;; Hardware stack levels used: 1
  1835 ;; Hardware stack levels required when called: 2
  1836 ;; This function calls:
  1837 ;;		_WriteByte_USART
  1838 ;;		_print_string
  1839 ;; This function is called by:
  1840 ;;		_Interrups
  1841 ;; This function uses a non-reentrant model
  1842 ;;
  1843                           
  1844     07CF                     _TransmitDAT_USART:	
  1845                           ;psect for function _TransmitDAT_USART
  1846                           
  1847                           
  1848                           ;incstack = 0
  1849                           ; Regs used in _TransmitDAT_USART: [wreg-fsr0h+status,2+status,0+btemp+1+pclath+cstack]
  1850                           ;TransmitDAT_USART@DAT_ID stored from wreg
  1851     07CF  00F3               	movwf	TransmitDAT_USART@DAT_ID
  1852     07D0                     i1l2363:
  1853                           
  1854                           ;LIB16F_USART.c: 134:     unsigned char conta;;LIB16F_USART.c: 136:     print_string("NN
      +                          NNJRODAT");
  1855     07D0  3024               	movlw	(low ((STR_12-__stringbase)| (0+32768)))& (0+255)
  1856     07D1  00F1               	movwf	print_string@str
  1857     07D2  3080               	movlw	128
  1858     07D3  00F2               	movwf	print_string@str+1
  1859     07D4  160A  118A  2195  120A  118A  	fcall	_print_string
  1860     07D9                     i1l2365:
  1861                           
  1862                           ;LIB16F_USART.c: 137:     WriteByte_USART(DAT_ID);
  1863     07D9  0873               	movf	TransmitDAT_USART@DAT_ID,w
  1864     07DA  160A  118A  20EF  120A  118A  	fcall	_WriteByte_USART
  1865     07DF                     i1l2367:
  1866                           
  1867                           ;LIB16F_USART.c: 138:     for(conta=0; conta<12; conta++){
  1868     07DF  01F4               	clrf	TransmitDAT_USART@conta
  1869     07E0                     i1l2373:
  1870                           
  1871                           ;LIB16F_USART.c: 139:         WriteByte_USART(BufferDAT[conta]);
  1872     07E0  0874               	movf	TransmitDAT_USART@conta,w
  1873     07E1  3EC0               	addlw	(low (_BufferDAT| 0))& (0+255)
  1874     07E2  0084               	movwf	4
  1875     07E3  1383               	bcf	3,7	;select IRP bank1
  1876     07E4  0800               	movf	0,w
  1877     07E5  160A  118A  20EF  120A  118A  	fcall	_WriteByte_USART
  1878     07EA                     i1l2375:
  1879                           
  1880                           ;LIB16F_USART.c: 140:     }
  1881     07EA  3001               	movlw	1
  1882     07EB  00FF               	movwf	btemp+1
  1883     07EC  087F               	movf	btemp+1,w
  1884     07ED  07F4               	addwf	TransmitDAT_USART@conta,f
  1885     07EE                     i1l2377:
  1886     07EE  300C               	movlw	12
  1887     07EF  0274               	subwf	TransmitDAT_USART@conta,w
  1888     07F0  1C03               	skipc
  1889     07F1  2FF3               	goto	u87_21
  1890     07F2  2FF4               	goto	u87_20
  1891     07F3                     u87_21:
  1892     07F3  2FE0               	goto	i1l2373
  1893     07F4                     u87_20:
  1894     07F4                     i1l2379:
  1895                           
  1896                           ;LIB16F_USART.c: 141:     print_string("\n\r");
  1897     07F4  3016               	movlw	(low (((STR_5+21)-__stringbase)| (0+32768)))& (0+255)
  1898     07F5  00F1               	movwf	print_string@str
  1899     07F6  3080               	movlw	128
  1900     07F7  00F2               	movwf	print_string@str+1
  1901     07F8  160A  118A  2195  120A  118A  	fcall	_print_string
  1902     07FD                     i1l436:
  1903     07FD  0008               	return
  1904     07FE                     __end_of_TransmitDAT_USART:
  1905                           
  1906                           	psect	text10
  1907     1140                     __ptext10:	
  1908 ;; *************** function _TransmitCMD_USART *****************
  1909 ;; Defined at:
  1910 ;;		line 125 in file "LIB16F_USART.c"
  1911 ;; Parameters:    Size  Location     Type
  1912 ;;  CMD_ID          1    wreg     unsigned char 
  1913 ;; Auto vars:     Size  Location     Type
  1914 ;;  CMD_ID          1    3[COMMON] unsigned char 
  1915 ;; Return value:  Size  Location     Type
  1916 ;;                  1    wreg      void 
  1917 ;; Registers used:
  1918 ;;		wreg, fsr0l, fsr0h, status,2, status,0, btemp+1, pclath, cstack
  1919 ;; Tracked objects:
  1920 ;;		On entry : 0/0
  1921 ;;		On exit  : 0/0
  1922 ;;		Unchanged: 0/0
  1923 ;; Data sizes:     COMMON   BANK0   BANK1   BANK3   BANK2
  1924 ;;      Params:         0       0       0       0       0
  1925 ;;      Locals:         1       0       0       0       0
  1926 ;;      Temps:          0       0       0       0       0
  1927 ;;      Totals:         1       0       0       0       0
  1928 ;;Total ram usage:        1 bytes
  1929 ;; Hardware stack levels used: 1
  1930 ;; Hardware stack levels required when called: 2
  1931 ;; This function calls:
  1932 ;;		_WriteByte_USART
  1933 ;;		_print_string
  1934 ;; This function is called by:
  1935 ;;		_Interrups
  1936 ;; This function uses a non-reentrant model
  1937 ;;
  1938                           
  1939     1140                     _TransmitCMD_USART:	
  1940                           ;psect for function _TransmitCMD_USART
  1941                           
  1942                           
  1943                           ;incstack = 0
  1944                           ; Regs used in _TransmitCMD_USART: [wreg-fsr0h+status,2+status,0+btemp+1+pclath+cstack]
  1945                           ;TransmitCMD_USART@CMD_ID stored from wreg
  1946     1140  00F3               	movwf	TransmitCMD_USART@CMD_ID
  1947     1141                     i1l2423:
  1948                           
  1949                           ;LIB16F_USART.c: 127:     print_string("NNNNJROCMD");
  1950     1141  3019               	movlw	(low ((STR_10-__stringbase)| (0+32768)))& (0+255)
  1951     1142  00F1               	movwf	print_string@str
  1952     1143  3080               	movlw	128
  1953     1144  00F2               	movwf	print_string@str+1
  1954     1145  160A  118A  2195  160A  118A  	fcall	_print_string
  1955     114A                     i1l2425:
  1956                           
  1957                           ;LIB16F_USART.c: 128:     WriteByte_USART(CMD_ID);
  1958     114A  0873               	movf	TransmitCMD_USART@CMD_ID,w
  1959     114B  160A  118A  20EF  160A  118A  	fcall	_WriteByte_USART
  1960     1150                     i1l2427:
  1961                           
  1962                           ;LIB16F_USART.c: 129:     print_string("\n\r");
  1963     1150  3016               	movlw	(low (((STR_5+21)-__stringbase)| (0+32768)))& (0+255)
  1964     1151  00F1               	movwf	print_string@str
  1965     1152  3080               	movlw	128
  1966     1153  00F2               	movwf	print_string@str+1
  1967     1154  160A  118A  2195  160A  118A  	fcall	_print_string
  1968     1159                     i1l431:
  1969     1159  0008               	return
  1970     115A                     __end_of_TransmitCMD_USART:
  1971                           
  1972                           	psect	text11
  1973     1195                     __ptext11:	
  1974 ;; *************** function _print_string *****************
  1975 ;; Defined at:
  1976 ;;		line 52 in file "LIB16F_USART.c"
  1977 ;; Parameters:    Size  Location     Type
  1978 ;;  str             2    1[COMMON] PTR unsigned char 
  1979 ;;		 -> STR_13(3), STR_12(11), STR_11(3), STR_10(11), 
  1980 ;;		 -> STR_9(3), STR_8(7), STR_7(3), STR_6(7), 
  1981 ;;		 -> STR_5(24), STR_4(3), STR_3(7), STR_2(3), 
  1982 ;;		 -> BufferDAT(13), STR_1(10), 
  1983 ;; Auto vars:     Size  Location     Type
  1984 ;;		None
  1985 ;; Return value:  Size  Location     Type
  1986 ;;                  1    wreg      void 
  1987 ;; Registers used:
  1988 ;;		wreg, fsr0l, fsr0h, status,2, status,0, btemp+1, pclath, cstack
  1989 ;; Tracked objects:
  1990 ;;		On entry : 0/0
  1991 ;;		On exit  : 0/0
  1992 ;;		Unchanged: 0/0
  1993 ;; Data sizes:     COMMON   BANK0   BANK1   BANK3   BANK2
  1994 ;;      Params:         2       0       0       0       0
  1995 ;;      Locals:         0       0       0       0       0
  1996 ;;      Temps:          0       0       0       0       0
  1997 ;;      Totals:         2       0       0       0       0
  1998 ;;Total ram usage:        2 bytes
  1999 ;; Hardware stack levels used: 1
  2000 ;; Hardware stack levels required when called: 1
  2001 ;; This function calls:
  2002 ;;		_WriteByte_USART
  2003 ;; This function is called by:
  2004 ;;		_Interrups
  2005 ;;		_TransmitCMD_USART
  2006 ;;		_TransmitDAT_USART
  2007 ;; This function uses a non-reentrant model
  2008 ;;
  2009                           
  2010     1195                     _print_string:	
  2011                           ;psect for function _print_string
  2012                           
  2013     1195                     i1l2307:	
  2014                           ;incstack = 0
  2015                           ; Regs used in _print_string: [wreg-fsr0h+status,2+status,0+btemp+1+pclath+cstack]
  2016                           
  2017                           
  2018                           ;LIB16F_USART.c: 54:     while(*str != '\0'){
  2019     1195  29AA               	goto	i1l2313
  2020     1196                     i1l2309:
  2021                           
  2022                           ;LIB16F_USART.c: 55:         WriteByte_USART(*str);
  2023     1196  0872               	movf	print_string@str+1,w
  2024     1197  00FF               	movwf	btemp+1
  2025     1198  0871               	movf	print_string@str,w
  2026     1199  0084               	movwf	4
  2027     119A  160A  118A  2000  160A  118A  	fcall	stringtab
  2028     119F  160A  118A  20EF  160A  118A  	fcall	_WriteByte_USART
  2029     11A4                     i1l2311:
  2030                           
  2031                           ;LIB16F_USART.c: 56:         str++;
  2032     11A4  3001               	movlw	1
  2033     11A5  07F1               	addwf	print_string@str,f
  2034     11A6  1803               	skipnc
  2035     11A7  0AF2               	incf	print_string@str+1,f
  2036     11A8  3000               	movlw	0
  2037     11A9  07F2               	addwf	print_string@str+1,f
  2038     11AA                     i1l2313:
  2039                           
  2040                           ;LIB16F_USART.c: 54:     while(*str != '\0'){
  2041     11AA  0872               	movf	print_string@str+1,w
  2042     11AB  1283               	bcf	3,5	;RP0=0, select bank0
  2043     11AC  1303               	bcf	3,6	;RP1=0, select bank0
  2044     11AD  00FF               	movwf	btemp+1
  2045     11AE  0871               	movf	print_string@str,w
  2046     11AF  0084               	movwf	4
  2047     11B0  160A  118A  2000  160A  118A  	fcall	stringtab
  2048     11B5  3A00               	xorlw	0
  2049     11B6  1D03               	skipz
  2050     11B7  29B9               	goto	u77_21
  2051     11B8  29BA               	goto	u77_20
  2052     11B9                     u77_21:
  2053     11B9  2996               	goto	i1l2309
  2054     11BA                     u77_20:
  2055     11BA                     i1l418:
  2056     11BA  0008               	return
  2057     11BB                     __end_of_print_string:
  2058                           
  2059                           	psect	text12
  2060     10EF                     __ptext12:	
  2061 ;; *************** function _WriteByte_USART *****************
  2062 ;; Defined at:
  2063 ;;		line 44 in file "LIB16F_USART.c"
  2064 ;; Parameters:    Size  Location     Type
  2065 ;;  byte            1    wreg     unsigned char 
  2066 ;; Auto vars:     Size  Location     Type
  2067 ;;  byte            1    0[COMMON] unsigned char 
  2068 ;; Return value:  Size  Location     Type
  2069 ;;                  1    wreg      void 
  2070 ;; Registers used:
  2071 ;;		wreg
  2072 ;; Tracked objects:
  2073 ;;		On entry : 0/0
  2074 ;;		On exit  : 0/0
  2075 ;;		Unchanged: 0/0
  2076 ;; Data sizes:     COMMON   BANK0   BANK1   BANK3   BANK2
  2077 ;;      Params:         0       0       0       0       0
  2078 ;;      Locals:         1       0       0       0       0
  2079 ;;      Temps:          0       0       0       0       0
  2080 ;;      Totals:         1       0       0       0       0
  2081 ;;Total ram usage:        1 bytes
  2082 ;; Hardware stack levels used: 1
  2083 ;; This function calls:
  2084 ;;		Nothing
  2085 ;; This function is called by:
  2086 ;;		_Interrups
  2087 ;;		_print_string
  2088 ;;		_TransmitCMD_USART
  2089 ;;		_TransmitDAT_USART
  2090 ;;		_print_value
  2091 ;; This function uses a non-reentrant model
  2092 ;;
  2093                           
  2094     10EF                     _WriteByte_USART:	
  2095                           ;psect for function _WriteByte_USART
  2096                           
  2097                           
  2098                           ;incstack = 0
  2099                           ; Regs used in _WriteByte_USART: [wreg]
  2100                           ;WriteByte_USART@byte stored from wreg
  2101     10EF  00F0               	movwf	WriteByte_USART@byte
  2102     10F0                     i1l2249:
  2103                           
  2104                           ;LIB16F_USART.c: 46:     TXREG = byte;
  2105     10F0  0870               	movf	WriteByte_USART@byte,w
  2106     10F1  1283               	bcf	3,5	;RP0=0, select bank0
  2107     10F2  1303               	bcf	3,6	;RP1=0, select bank0
  2108     10F3  0099               	movwf	25	;volatile
  2109     10F4                     i1l2251:
  2110                           
  2111                           ;LIB16F_USART.c: 47:     __nop();
  2112     10F4  0000               	nop
  2113     10F5                     i1l409:	
  2114                           ;LIB16F_USART.c: 48:     while(!PIR1bits.TXIF);
  2115                           
  2116     10F5  1283               	bcf	3,5	;RP0=0, select bank0
  2117     10F6  1303               	bcf	3,6	;RP1=0, select bank0
  2118     10F7  1E0C               	btfss	12,4	;volatile
  2119     10F8  28FA               	goto	u66_21
  2120     10F9  28FB               	goto	u66_20
  2121     10FA                     u66_21:
  2122     10FA  28F5               	goto	i1l409
  2123     10FB                     u66_20:
  2124     10FB                     i1l412:
  2125     10FB  0008               	return
  2126     10FC                     __end_of_WriteByte_USART:
  2127                           
  2128                           	psect	text13
  2129     1289                     __ptext13:	
  2130 ;; *************** function _ResetCS5532 *****************
  2131 ;; Defined at:
  2132 ;;		line 39 in file "LIB16F_SPI.c"
  2133 ;; Parameters:    Size  Location     Type
  2134 ;;		None
  2135 ;; Auto vars:     Size  Location     Type
  2136 ;;  conta           1    4[COMMON] unsigned char 
  2137 ;; Return value:  Size  Location     Type
  2138 ;;                  1    wreg      unsigned char 
  2139 ;; Registers used:
  2140 ;;		wreg, status,2, status,0, btemp+1, pclath, cstack
  2141 ;; Tracked objects:
  2142 ;;		On entry : 0/0
  2143 ;;		On exit  : 0/0
  2144 ;;		Unchanged: 0/0
  2145 ;; Data sizes:     COMMON   BANK0   BANK1   BANK3   BANK2
  2146 ;;      Params:         0       0       0       0       0
  2147 ;;      Locals:         1       0       0       0       0
  2148 ;;      Temps:          2       0       0       0       0
  2149 ;;      Totals:         3       0       0       0       0
  2150 ;;Total ram usage:        3 bytes
  2151 ;; Hardware stack levels used: 1
  2152 ;; Hardware stack levels required when called: 2
  2153 ;; This function calls:
  2154 ;;		_ReadRegister_4bytesCS5532
  2155 ;;		_TransferByte_SPI
  2156 ;;		_WriteRegister_4bytesCS5532
  2157 ;; This function is called by:
  2158 ;;		_Interrups
  2159 ;; This function uses a non-reentrant model
  2160 ;;
  2161                           
  2162     1289                     _ResetCS5532:	
  2163                           ;psect for function _ResetCS5532
  2164                           
  2165     1289                     i1l2431:	
  2166                           ;incstack = 0
  2167                           ; Regs used in _ResetCS5532: [wreg+status,2+status,0+btemp+1+pclath+cstack]
  2168                           
  2169                           
  2170                           ;LIB16F_SPI.c: 40:     unsigned char conta;;LIB16F_SPI.c: 43:     for(conta=0;conta<15;c
      +                          onta++){
  2171     1289  01F4               	clrf	ResetCS5532@conta
  2172     128A                     i1l2437:
  2173                           
  2174                           ;LIB16F_SPI.c: 44:         TransferByte_SPI(0xFF);
  2175     128A  30FF               	movlw	255
  2176     128B  160A  118A  210B  160A  118A  	fcall	_TransferByte_SPI
  2177     1290                     i1l2439:
  2178                           
  2179                           ;LIB16F_SPI.c: 45:     }
  2180     1290  3001               	movlw	1
  2181     1291  00FF               	movwf	btemp+1
  2182     1292  087F               	movf	btemp+1,w
  2183     1293  07F4               	addwf	ResetCS5532@conta,f
  2184     1294                     i1l2441:
  2185     1294  300F               	movlw	15
  2186     1295  0274               	subwf	ResetCS5532@conta,w
  2187     1296  1C03               	skipc
  2188     1297  2A99               	goto	u94_21
  2189     1298  2A9A               	goto	u94_20
  2190     1299                     u94_21:
  2191     1299  2A8A               	goto	i1l2437
  2192     129A                     u94_20:
  2193     129A                     i1l2443:
  2194                           
  2195                           ;LIB16F_SPI.c: 46:     TransferByte_SPI(0xFE);
  2196     129A  30FE               	movlw	254
  2197     129B  160A  118A  210B  160A  118A  	fcall	_TransferByte_SPI
  2198     12A0                     i1l2445:
  2199                           
  2200                           ;LIB16F_SPI.c: 47:     _delay((unsigned long)((2)*(9830400UL/4000.0)));
  2201     12A0  3007               	movlw	7
  2202     12A1  00F3               	movwf	??_ResetCS5532+1
  2203     12A2  3060               	movlw	96
  2204     12A3  00F2               	movwf	??_ResetCS5532
  2205     12A4                     u155_27:
  2206     12A4  0BF2               	decfsz	??_ResetCS5532,f
  2207     12A5  2AA4               	goto	u155_27
  2208     12A6  0BF3               	decfsz	??_ResetCS5532+1,f
  2209     12A7  2AA4               	goto	u155_27
  2210     12A8  2AA9               	nop2
  2211     12A9                     i1l2447:
  2212                           
  2213                           ;LIB16F_SPI.c: 49:     ReadRegister_4bytesCS5532(0x0B);
  2214     12A9  300B               	movlw	11
  2215     12AA  160A  118A  21E3  160A  118A  	fcall	_ReadRegister_4bytesCS5532
  2216     12AF                     i1l2449:
  2217                           
  2218                           ;LIB16F_SPI.c: 50:     BufferSPI[0] |= 0x20;
  2219     12AF  1683               	bsf	3,5	;RP0=1, select bank1
  2220     12B0  1303               	bcf	3,6	;RP1=0, select bank1
  2221     12B1  16BC               	bsf	_BufferSPI^(0+128),5
  2222     12B2                     i1l2451:
  2223                           
  2224                           ;LIB16F_SPI.c: 51:     WriteRegister_4bytesCS5532(0x03);
  2225     12B2  3003               	movlw	3
  2226     12B3  160A  118A  21BB  160A  118A  	fcall	_WriteRegister_4bytesCS5532
  2227     12B8                     i1l2453:
  2228                           
  2229                           ;LIB16F_SPI.c: 52:     _delay((unsigned long)((25)*(9830400UL/4000000.0)));
  2230     12B8  3014               	movlw	20
  2231     12B9  00F2               	movwf	??_ResetCS5532
  2232     12BA                     u156_27:
  2233     12BA  0BF2               	decfsz	??_ResetCS5532,f
  2234     12BB  2ABA               	goto	u156_27
  2235     12BC                     i1l2455:
  2236                           
  2237                           ;LIB16F_SPI.c: 53:     BufferSPI[0] &= 0xDF;
  2238     12BC  30DF               	movlw	223
  2239     12BD  00FF               	movwf	btemp+1
  2240     12BE  087F               	movf	btemp+1,w
  2241     12BF  1683               	bsf	3,5	;RP0=1, select bank1
  2242     12C0  1303               	bcf	3,6	;RP1=0, select bank1
  2243     12C1  05BC               	andwf	_BufferSPI^(0+128),f
  2244     12C2                     i1l2457:
  2245                           
  2246                           ;LIB16F_SPI.c: 54:     WriteRegister_4bytesCS5532(0x03);
  2247     12C2  3003               	movlw	3
  2248     12C3  160A  118A  21BB  160A  118A  	fcall	_WriteRegister_4bytesCS5532
  2249     12C8                     i1l2459:
  2250                           
  2251                           ;LIB16F_SPI.c: 55:     _delay((unsigned long)((25)*(9830400UL/4000000.0)));
  2252     12C8  3014               	movlw	20
  2253     12C9  00F2               	movwf	??_ResetCS5532
  2254     12CA                     u157_27:
  2255     12CA  0BF2               	decfsz	??_ResetCS5532,f
  2256     12CB  2ACA               	goto	u157_27
  2257     12CC                     i1l2461:
  2258                           
  2259                           ;LIB16F_SPI.c: 56:     ReadRegister_4bytesCS5532(0x0B);
  2260     12CC  300B               	movlw	11
  2261     12CD  160A  118A  21E3  160A  118A  	fcall	_ReadRegister_4bytesCS5532
  2262     12D2                     i1l2463:
  2263                           
  2264                           ;LIB16F_SPI.c: 57:     return BufferSPI[0];
  2265     12D2  1683               	bsf	3,5	;RP0=1, select bank1
  2266     12D3  1303               	bcf	3,6	;RP1=0, select bank1
  2267     12D4  083C               	movf	_BufferSPI^(0+128),w
  2268     12D5                     i1l296:
  2269     12D5  0008               	return
  2270     12D6                     __end_of_ResetCS5532:
  2271                           
  2272                           	psect	text14
  2273     12D6                     __ptext14:	
  2274 ;; *************** function _ReceiveCMD_USART *****************
  2275 ;; Defined at:
  2276 ;;		line 60 in file "LIB16F_USART.c"
  2277 ;; Parameters:    Size  Location     Type
  2278 ;;		None
  2279 ;; Auto vars:     Size  Location     Type
  2280 ;;  data_byte       1    1[COMMON] unsigned char 
  2281 ;;  conta_byte      1    0[COMMON] unsigned char 
  2282 ;; Return value:  Size  Location     Type
  2283 ;;                  1    wreg      unsigned char 
  2284 ;; Registers used:
  2285 ;;		wreg, status,2, status,0, btemp+1, pclath, cstack
  2286 ;; Tracked objects:
  2287 ;;		On entry : 0/0
  2288 ;;		On exit  : 0/0
  2289 ;;		Unchanged: 0/0
  2290 ;; Data sizes:     COMMON   BANK0   BANK1   BANK3   BANK2
  2291 ;;      Params:         0       0       0       0       0
  2292 ;;      Locals:         2       0       0       0       0
  2293 ;;      Temps:          0       0       0       0       0
  2294 ;;      Totals:         2       0       0       0       0
  2295 ;;Total ram usage:        2 bytes
  2296 ;; Hardware stack levels used: 1
  2297 ;; Hardware stack levels required when called: 1
  2298 ;; This function calls:
  2299 ;;		_ReadByte_USART
  2300 ;; This function is called by:
  2301 ;;		_Interrups
  2302 ;; This function uses a non-reentrant model
  2303 ;;
  2304                           
  2305     12D6                     _ReceiveCMD_USART:	
  2306                           ;psect for function _ReceiveCMD_USART
  2307                           
  2308     12D6                     i1l2383:	
  2309                           ;incstack = 0
  2310                           ; Regs used in _ReceiveCMD_USART: [wreg+status,2+status,0+btemp+1+pclath+cstack]
  2311                           
  2312                           
  2313                           ;LIB16F_USART.c: 61:     unsigned char conta_byte;;LIB16F_USART.c: 62:     unsigned char
      +                           data_byte;;LIB16F_USART.c: 64:     for(conta_byte=0; conta_byte<10; conta_byte++){
  2314     12D6  01F0               	clrf	ReceiveCMD_USART@conta_byte
  2315     12D7                     i1l2389:
  2316                           
  2317                           ;LIB16F_USART.c: 65:         data_byte = ReadByte_USART();
  2318     12D7  160A  118A  211B  160A  118A  	fcall	_ReadByte_USART
  2319     12DC  00F1               	movwf	ReceiveCMD_USART@data_byte
  2320     12DD                     i1l2391:
  2321                           
  2322                           ;LIB16F_USART.c: 66:         if(data_byte == 'J'){
  2323     12DD  304A               	movlw	74
  2324     12DE  0671               	xorwf	ReceiveCMD_USART@data_byte,w
  2325     12DF  1D03               	btfss	3,2
  2326     12E0  2AE2               	goto	u88_21
  2327     12E1  2AE3               	goto	u88_20
  2328     12E2                     u88_21:
  2329     12E2  2AE4               	goto	i1l2395
  2330     12E3                     u88_20:
  2331     12E3  2AEE               	goto	i1l2399
  2332     12E4                     i1l2395:
  2333                           
  2334                           ;LIB16F_USART.c: 69:     }
  2335     12E4  3001               	movlw	1
  2336     12E5  00FF               	movwf	btemp+1
  2337     12E6  087F               	movf	btemp+1,w
  2338     12E7  07F0               	addwf	ReceiveCMD_USART@conta_byte,f
  2339     12E8                     i1l2397:
  2340     12E8  300A               	movlw	10
  2341     12E9  0270               	subwf	ReceiveCMD_USART@conta_byte,w
  2342     12EA  1C03               	skipc
  2343     12EB  2AED               	goto	u89_21
  2344     12EC  2AEE               	goto	u89_20
  2345     12ED                     u89_21:
  2346     12ED  2AD7               	goto	i1l2389
  2347     12EE                     u89_20:
  2348     12EE                     i1l2399:
  2349                           
  2350                           ;LIB16F_USART.c: 70:     if(conta_byte < 10){
  2351     12EE  300A               	movlw	10
  2352     12EF  0270               	subwf	ReceiveCMD_USART@conta_byte,w
  2353     12F0  1803               	skipnc
  2354     12F1  2AF3               	goto	u90_21
  2355     12F2  2AF4               	goto	u90_20
  2356     12F3                     u90_21:
  2357     12F3  2B3C               	goto	i1l424
  2358     12F4                     u90_20:
  2359     12F4                     i1l2401:
  2360                           
  2361                           ;LIB16F_USART.c: 71:         data_byte = ReadByte_USART();
  2362     12F4  160A  118A  211B  160A  118A  	fcall	_ReadByte_USART
  2363     12F9  00F1               	movwf	ReceiveCMD_USART@data_byte
  2364     12FA                     i1l2403:
  2365                           
  2366                           ;LIB16F_USART.c: 72:         if(data_byte == 'R'){
  2367     12FA  3052               	movlw	82
  2368     12FB  0671               	xorwf	ReceiveCMD_USART@data_byte,w
  2369     12FC  1D03               	btfss	3,2
  2370     12FD  2AFF               	goto	u91_21
  2371     12FE  2B00               	goto	u91_20
  2372     12FF                     u91_21:
  2373     12FF  2B3C               	goto	i1l424
  2374     1300                     u91_20:
  2375     1300                     i1l2405:
  2376                           
  2377                           ;LIB16F_USART.c: 73:             data_byte = ReadByte_USART();
  2378     1300  160A  118A  211B  160A  118A  	fcall	_ReadByte_USART
  2379     1305  00F1               	movwf	ReceiveCMD_USART@data_byte
  2380     1306                     i1l2407:
  2381                           
  2382                           ;LIB16F_USART.c: 74:             if(data_byte == 'O'){
  2383     1306  304F               	movlw	79
  2384     1307  0671               	xorwf	ReceiveCMD_USART@data_byte,w
  2385     1308  1D03               	btfss	3,2
  2386     1309  2B0B               	goto	u92_21
  2387     130A  2B0C               	goto	u92_20
  2388     130B                     u92_21:
  2389     130B  2B3C               	goto	i1l424
  2390     130C                     u92_20:
  2391     130C                     i1l2409:
  2392                           
  2393                           ;LIB16F_USART.c: 75:                 data_byte = ReadByte_USART();
  2394     130C  160A  118A  211B  160A  118A  	fcall	_ReadByte_USART
  2395     1311  00F1               	movwf	ReceiveCMD_USART@data_byte
  2396     1312                     i1l2411:
  2397                           
  2398                           ;LIB16F_USART.c: 76:                 if(data_byte == 'C'){
  2399     1312  3043               	movlw	67
  2400     1313  0671               	xorwf	ReceiveCMD_USART@data_byte,w
  2401     1314  1D03               	btfss	3,2
  2402     1315  2B17               	goto	u93_21
  2403     1316  2B18               	goto	u93_20
  2404     1317                     u93_21:
  2405     1317  2B3C               	goto	i1l424
  2406     1318                     u93_20:
  2407     1318                     i1l2413:
  2408                           
  2409                           ;LIB16F_USART.c: 77:                     data_byte = ReadByte_USART();
  2410     1318  160A  118A  211B  160A  118A  	fcall	_ReadByte_USART
  2411     131D  00F1               	movwf	ReceiveCMD_USART@data_byte
  2412                           
  2413                           ;LIB16F_USART.c: 78:                     data_byte = ReadByte_USART();
  2414     131E  160A  118A  211B  160A  118A  	fcall	_ReadByte_USART
  2415     1323  00F1               	movwf	ReceiveCMD_USART@data_byte
  2416                           
  2417                           ;LIB16F_USART.c: 79:                     BufferDAT[12] = ReadByte_USART();
  2418     1324  160A  118A  211B  160A  118A  	fcall	_ReadByte_USART
  2419     1329  1683               	bsf	3,5	;RP0=1, select bank1
  2420     132A  1303               	bcf	3,6	;RP1=0, select bank1
  2421     132B  00CC               	movwf	(_BufferDAT^(0+128)+12)
  2422                           
  2423                           ;LIB16F_USART.c: 80:                     data_byte = ReadByte_USART();
  2424     132C  160A  118A  211B  160A  118A  	fcall	_ReadByte_USART
  2425     1331  00F1               	movwf	ReceiveCMD_USART@data_byte
  2426                           
  2427                           ;LIB16F_USART.c: 81:                     data_byte = ReadByte_USART();
  2428     1332  160A  118A  211B  160A  118A  	fcall	_ReadByte_USART
  2429     1337  00F1               	movwf	ReceiveCMD_USART@data_byte
  2430     1338                     i1l2415:
  2431                           
  2432                           ;LIB16F_USART.c: 82:                     return BufferDAT[12];
  2433     1338  1683               	bsf	3,5	;RP0=1, select bank1
  2434     1339  1303               	bcf	3,6	;RP1=0, select bank1
  2435     133A  084C               	movf	(_BufferDAT^(0+128)+12),w
  2436     133B  2B40               	goto	i1l428
  2437     133C                     i1l424:	
  2438                           ;LIB16F_USART.c: 86:     }
  2439                           
  2440                           
  2441                           ;LIB16F_USART.c: 87:     RCSTAbits.CREN = 0;
  2442     133C  1283               	bcf	3,5	;RP0=0, select bank0
  2443     133D  1303               	bcf	3,6	;RP1=0, select bank0
  2444     133E  1218               	bcf	24,4	;volatile
  2445     133F                     i1l2419:
  2446                           
  2447                           ;LIB16F_USART.c: 88:     return 'X';
  2448     133F  3058               	movlw	88
  2449     1340                     i1l428:
  2450     1340  0008               	return
  2451     1341                     __end_of_ReceiveCMD_USART:
  2452                           
  2453                           	psect	text15
  2454     111B                     __ptext15:	
  2455 ;; *************** function _ReadByte_USART *****************
  2456 ;; Defined at:
  2457 ;;		line 33 in file "LIB16F_USART.c"
  2458 ;; Parameters:    Size  Location     Type
  2459 ;;		None
  2460 ;; Auto vars:     Size  Location     Type
  2461 ;;		None
  2462 ;; Return value:  Size  Location     Type
  2463 ;;                  1    wreg      unsigned char 
  2464 ;; Registers used:
  2465 ;;		wreg, status,2
  2466 ;; Tracked objects:
  2467 ;;		On entry : 0/0
  2468 ;;		On exit  : 0/0
  2469 ;;		Unchanged: 0/0
  2470 ;; Data sizes:     COMMON   BANK0   BANK1   BANK3   BANK2
  2471 ;;      Params:         0       0       0       0       0
  2472 ;;      Locals:         0       0       0       0       0
  2473 ;;      Temps:          0       0       0       0       0
  2474 ;;      Totals:         0       0       0       0       0
  2475 ;;Total ram usage:        0 bytes
  2476 ;; Hardware stack levels used: 1
  2477 ;; This function calls:
  2478 ;;		Nothing
  2479 ;; This function is called by:
  2480 ;;		_ReceiveCMD_USART
  2481 ;; This function uses a non-reentrant model
  2482 ;;
  2483                           
  2484     111B                     _ReadByte_USART:	
  2485                           ;psect for function _ReadByte_USART
  2486                           
  2487     111B                     i1l2335:	
  2488                           ;incstack = 0
  2489                           ; Regs used in _ReadByte_USART: [wreg+status,2]
  2490                           
  2491                           
  2492                           ;LIB16F_USART.c: 35:     TMR2 = 0x00;
  2493     111B  1283               	bcf	3,5	;RP0=0, select bank0
  2494     111C  1303               	bcf	3,6	;RP1=0, select bank0
  2495     111D  0191               	clrf	17	;volatile
  2496     111E                     i1l2337:
  2497                           
  2498                           ;LIB16F_USART.c: 36:     T2CONbits.TMR2ON = 1;
  2499     111E  1512               	bsf	18,2	;volatile
  2500     111F                     i1l401:	
  2501                           ;LIB16F_USART.c: 37:     while((!PIR1bits.RCIF) && (!PIR1bits.TMR2IF));
  2502                           
  2503     111F  1A8C               	btfsc	12,5	;volatile
  2504     1120  2922               	goto	u83_21
  2505     1121  2923               	goto	u83_20
  2506     1122                     u83_21:
  2507     1122  2927               	goto	i1l405
  2508     1123                     u83_20:
  2509     1123                     i1l2339:
  2510     1123  1C8C               	btfss	12,1	;volatile
  2511     1124  2926               	goto	u84_21
  2512     1125  2927               	goto	u84_20
  2513     1126                     u84_21:
  2514     1126  291F               	goto	i1l401
  2515     1127                     u84_20:
  2516     1127                     i1l405:
  2517                           
  2518                           ;LIB16F_USART.c: 39:     T2CONbits.TMR2ON = 0;
  2519     1127  1112               	bcf	18,2	;volatile
  2520                           
  2521                           ;LIB16F_USART.c: 40:     PIR1bits.TMR2IF = 0;
  2522     1128  108C               	bcf	12,1	;volatile
  2523     1129                     i1l2341:
  2524                           
  2525                           ;LIB16F_USART.c: 41:     return RCREG;
  2526     1129  081A               	movf	26,w	;volatile
  2527     112A                     i1l406:
  2528     112A  0008               	return
  2529     112B                     __end_of_ReadByte_USART:
  2530                           
  2531                           	psect	text16
  2532     1177                     __ptext16:	
  2533 ;; *************** function _InitCS5532 *****************
  2534 ;; Defined at:
  2535 ;;		line 60 in file "LIB16F_SPI.c"
  2536 ;; Parameters:    Size  Location     Type
  2537 ;;		None
  2538 ;; Auto vars:     Size  Location     Type
  2539 ;;		None
  2540 ;; Return value:  Size  Location     Type
  2541 ;;                  1    wreg      void 
  2542 ;; Registers used:
  2543 ;;		wreg, status,2, status,0, pclath, cstack
  2544 ;; Tracked objects:
  2545 ;;		On entry : 0/0
  2546 ;;		On exit  : 0/0
  2547 ;;		Unchanged: 0/0
  2548 ;; Data sizes:     COMMON   BANK0   BANK1   BANK3   BANK2
  2549 ;;      Params:         0       0       0       0       0
  2550 ;;      Locals:         0       0       0       0       0
  2551 ;;      Temps:          0       0       0       0       0
  2552 ;;      Totals:         0       0       0       0       0
  2553 ;;Total ram usage:        0 bytes
  2554 ;; Hardware stack levels used: 1
  2555 ;; Hardware stack levels required when called: 2
  2556 ;; This function calls:
  2557 ;;		_ReadRegister_4bytesCS5532
  2558 ;;		_WriteRegister_4bytesCS5532
  2559 ;; This function is called by:
  2560 ;;		_Interrups
  2561 ;; This function uses a non-reentrant model
  2562 ;;
  2563                           
  2564     1177                     _InitCS5532:	
  2565                           ;psect for function _InitCS5532
  2566                           
  2567     1177                     i1l2467:	
  2568                           ;incstack = 0
  2569                           ; Regs used in _InitCS5532: [wreg+status,2+status,0+pclath+cstack]
  2570                           
  2571                           
  2572                           ;LIB16F_SPI.c: 63:     ReadRegister_4bytesCS5532(0x0B);
  2573     1177  300B               	movlw	11
  2574     1178  160A  118A  21E3  160A  118A  	fcall	_ReadRegister_4bytesCS5532
  2575     117D                     i1l2469:
  2576                           
  2577                           ;LIB16F_SPI.c: 64:     BufferSPI[0] |= 0x02;
  2578     117D  1683               	bsf	3,5	;RP0=1, select bank1
  2579     117E  1303               	bcf	3,6	;RP1=0, select bank1
  2580     117F  14BC               	bsf	_BufferSPI^(0+128),1
  2581                           
  2582                           ;LIB16F_SPI.c: 65:     WriteRegister_4bytesCS5532(0x03);
  2583     1180  3003               	movlw	3
  2584     1181  160A  118A  21BB  160A  118A  	fcall	_WriteRegister_4bytesCS5532
  2585     1186                     i1l2471:
  2586                           
  2587                           ;LIB16F_SPI.c: 67:     BufferSPI[0] = 0x05;
  2588     1186  3005               	movlw	5
  2589     1187  1683               	bsf	3,5	;RP0=1, select bank1
  2590     1188  1303               	bcf	3,6	;RP1=0, select bank1
  2591     1189  00BC               	movwf	_BufferSPI^(0+128)
  2592     118A                     i1l2473:
  2593                           
  2594                           ;LIB16F_SPI.c: 68:     BufferSPI[1] = 0x00;
  2595     118A  01BD               	clrf	(_BufferSPI^(0+128)+1)
  2596     118B                     i1l2475:
  2597                           
  2598                           ;LIB16F_SPI.c: 69:     BufferSPI[2] = 0x05;
  2599     118B  3005               	movlw	5
  2600     118C  00BE               	movwf	(_BufferSPI^(0+128)+2)
  2601     118D                     i1l2477:
  2602                           
  2603                           ;LIB16F_SPI.c: 70:     BufferSPI[3] = 0x00;
  2604     118D  01BF               	clrf	(_BufferSPI^(0+128)+3)
  2605                           
  2606                           ;LIB16F_SPI.c: 71:     WriteRegister_4bytesCS5532(0x05);
  2607     118E  3005               	movlw	5
  2608     118F  160A  118A  21BB  160A  118A  	fcall	_WriteRegister_4bytesCS5532
  2609     1194                     i1l299:
  2610     1194  0008               	return
  2611     1195                     __end_of_InitCS5532:
  2612                           
  2613                           	psect	text17
  2614     11BB                     __ptext17:	
  2615 ;; *************** function _WriteRegister_4bytesCS5532 *****************
  2616 ;; Defined at:
  2617 ;;		line 85 in file "LIB16F_SPI.c"
  2618 ;; Parameters:    Size  Location     Type
  2619 ;;  command         1    wreg     unsigned char 
  2620 ;; Auto vars:     Size  Location     Type
  2621 ;;  command         1    1[COMMON] unsigned char 
  2622 ;; Return value:  Size  Location     Type
  2623 ;;                  1    wreg      void 
  2624 ;; Registers used:
  2625 ;;		wreg, status,2, status,0, pclath, cstack
  2626 ;; Tracked objects:
  2627 ;;		On entry : 0/0
  2628 ;;		On exit  : 0/0
  2629 ;;		Unchanged: 0/0
  2630 ;; Data sizes:     COMMON   BANK0   BANK1   BANK3   BANK2
  2631 ;;      Params:         0       0       0       0       0
  2632 ;;      Locals:         1       0       0       0       0
  2633 ;;      Temps:          0       0       0       0       0
  2634 ;;      Totals:         1       0       0       0       0
  2635 ;;Total ram usage:        1 bytes
  2636 ;; Hardware stack levels used: 1
  2637 ;; Hardware stack levels required when called: 1
  2638 ;; This function calls:
  2639 ;;		_TransferByte_SPI
  2640 ;; This function is called by:
  2641 ;;		_ResetCS5532
  2642 ;;		_InitCS5532
  2643 ;; This function uses a non-reentrant model
  2644 ;;
  2645                           
  2646     11BB                     _WriteRegister_4bytesCS5532:	
  2647                           ;psect for function _WriteRegister_4bytesCS5532
  2648                           
  2649                           
  2650                           ;incstack = 0
  2651                           ; Regs used in _WriteRegister_4bytesCS5532: [wreg+status,2+status,0+pclath+cstack]
  2652                           ;WriteRegister_4bytesCS5532@command stored from wreg
  2653     11BB  00F1               	movwf	WriteRegister_4bytesCS5532@command
  2654     11BC                     i1l2331:
  2655                           
  2656                           ;LIB16F_SPI.c: 87:     TransferByte_SPI(command);
  2657     11BC  0871               	movf	WriteRegister_4bytesCS5532@command,w
  2658     11BD  160A  118A  210B  160A  118A  	fcall	_TransferByte_SPI
  2659                           
  2660                           ;LIB16F_SPI.c: 88:     TransferByte_SPI(BufferSPI[0]);
  2661     11C2  1683               	bsf	3,5	;RP0=1, select bank1
  2662     11C3  1303               	bcf	3,6	;RP1=0, select bank1
  2663     11C4  083C               	movf	_BufferSPI^(0+128),w
  2664     11C5  160A  118A  210B  160A  118A  	fcall	_TransferByte_SPI
  2665                           
  2666                           ;LIB16F_SPI.c: 89:     TransferByte_SPI(BufferSPI[1]);
  2667     11CA  1683               	bsf	3,5	;RP0=1, select bank1
  2668     11CB  1303               	bcf	3,6	;RP1=0, select bank1
  2669     11CC  083D               	movf	(_BufferSPI^(0+128)+1),w
  2670     11CD  160A  118A  210B  160A  118A  	fcall	_TransferByte_SPI
  2671                           
  2672                           ;LIB16F_SPI.c: 90:     TransferByte_SPI(BufferSPI[2]);
  2673     11D2  1683               	bsf	3,5	;RP0=1, select bank1
  2674     11D3  1303               	bcf	3,6	;RP1=0, select bank1
  2675     11D4  083E               	movf	(_BufferSPI^(0+128)+2),w
  2676     11D5  160A  118A  210B  160A  118A  	fcall	_TransferByte_SPI
  2677                           
  2678                           ;LIB16F_SPI.c: 91:     TransferByte_SPI(BufferSPI[3]);
  2679     11DA  1683               	bsf	3,5	;RP0=1, select bank1
  2680     11DB  1303               	bcf	3,6	;RP1=0, select bank1
  2681     11DC  083F               	movf	(_BufferSPI^(0+128)+3),w
  2682     11DD  160A  118A  210B  160A  118A  	fcall	_TransferByte_SPI
  2683     11E2                     i1l305:
  2684     11E2  0008               	return
  2685     11E3                     __end_of_WriteRegister_4bytesCS5532:
  2686                           
  2687                           	psect	text18
  2688     112B                     __ptext18:	
  2689 ;; *************** function _CleanHolding *****************
  2690 ;; Defined at:
  2691 ;;		line 116 in file "LIB16F_SPI.c"
  2692 ;; Parameters:    Size  Location     Type
  2693 ;;		None
  2694 ;; Auto vars:     Size  Location     Type
  2695 ;;		None
  2696 ;; Return value:  Size  Location     Type
  2697 ;;                  1    wreg      void 
  2698 ;; Registers used:
  2699 ;;		wreg, status,2, status,0, btemp+1, pclath, cstack
  2700 ;; Tracked objects:
  2701 ;;		On entry : 0/0
  2702 ;;		On exit  : 0/0
  2703 ;;		Unchanged: 0/0
  2704 ;; Data sizes:     COMMON   BANK0   BANK1   BANK3   BANK2
  2705 ;;      Params:         0       0       0       0       0
  2706 ;;      Locals:         0       0       0       0       0
  2707 ;;      Temps:          0       1       0       0       0
  2708 ;;      Totals:         0       1       0       0       0
  2709 ;;Total ram usage:        1 bytes
  2710 ;; Hardware stack levels used: 1
  2711 ;; Hardware stack levels required when called: 3
  2712 ;; This function calls:
  2713 ;;		_ReadAD24
  2714 ;; This function is called by:
  2715 ;;		_Interrups
  2716 ;; This function uses a non-reentrant model
  2717 ;;
  2718                           
  2719     112B                     _CleanHolding:	
  2720                           ;psect for function _CleanHolding
  2721                           
  2722     112B                     i1l2345:	
  2723                           ;incstack = 0
  2724                           ; Regs used in _CleanHolding: [wreg+status,2+status,0+btemp+1+pclath+cstack]
  2725                           
  2726                           
  2727                           ;LIB16F_SPI.c: 118:     PORTB = 0X0C;
  2728     112B  300C               	movlw	12
  2729     112C  1283               	bcf	3,5	;RP0=0, select bank0
  2730     112D  1303               	bcf	3,6	;RP1=0, select bank0
  2731     112E  0086               	movwf	6	;volatile
  2732                           
  2733                           ;LIB16F_SPI.c: 119:     _delay((unsigned long)((100)*(9830400UL/4000000.0)));
  2734     112F  3050               	movlw	80
  2735     1130  1283               	bcf	3,5	;RP0=0, select bank0
  2736     1131  1303               	bcf	3,6	;RP1=0, select bank0
  2737     1132  00E1               	movwf	??_CleanHolding
  2738     1133                     u158_27:
  2739     1133  0BE1               	decfsz	??_CleanHolding,f
  2740     1134  2933               	goto	u158_27
  2741     1135  2936               	nop2
  2742     1136                     i1l2347:
  2743                           
  2744                           ;LIB16F_SPI.c: 120:     ReadAD24(0, 0x00);
  2745     1136  1283               	bcf	3,5	;RP0=0, select bank0
  2746     1137  1303               	bcf	3,6	;RP1=0, select bank0
  2747     1138  01D5               	clrf	ReadAD24@cmd_convert
  2748     1139  3000               	movlw	0
  2749     113A  160A  118A  23DE  160A  118A  	fcall	_ReadAD24
  2750     113F                     i1l315:
  2751     113F  0008               	return
  2752     1140                     __end_of_CleanHolding:
  2753                           
  2754                           	psect	text19
  2755     13DE                     __ptext19:	
  2756 ;; *************** function _ReadAD24 *****************
  2757 ;; Defined at:
  2758 ;;		line 97 in file "LIB16F_SPI.c"
  2759 ;; Parameters:    Size  Location     Type
  2760 ;;  flag_convert    1    wreg     unsigned char 
  2761 ;;  cmd_convert     1    6[BANK0 ] unsigned char 
  2762 ;; Auto vars:     Size  Location     Type
  2763 ;;  flag_convert    1    9[COMMON] unsigned char 
  2764 ;;  DataADC         4   10[COMMON] long 
  2765 ;; Return value:  Size  Location     Type
  2766 ;;                  4    6[BANK0 ] long 
  2767 ;; Registers used:
  2768 ;;		wreg, status,2, status,0, btemp+1, pclath, cstack
  2769 ;; Tracked objects:
  2770 ;;		On entry : 0/0
  2771 ;;		On exit  : 0/0
  2772 ;;		Unchanged: 0/0
  2773 ;; Data sizes:     COMMON   BANK0   BANK1   BANK3   BANK2
  2774 ;;      Params:         0       4       0       0       0
  2775 ;;      Locals:         5       0       0       0       0
  2776 ;;      Temps:          0       8       0       0       0
  2777 ;;      Totals:         5      12       0       0       0
  2778 ;;Total ram usage:       17 bytes
  2779 ;; Hardware stack levels used: 1
  2780 ;; Hardware stack levels required when called: 2
  2781 ;; This function calls:
  2782 ;;		_ReadRegister_4bytesCS5532
  2783 ;;		___aldiv
  2784 ;; This function is called by:
  2785 ;;		_Interrups
  2786 ;;		_CleanHolding
  2787 ;; This function uses a non-reentrant model
  2788 ;;
  2789                           
  2790     13DE                     _ReadAD24:	
  2791                           ;psect for function _ReadAD24
  2792                           
  2793                           
  2794                           ;incstack = 0
  2795                           ; Regs used in _ReadAD24: [wreg+status,2+status,0+btemp+1+pclath+cstack]
  2796                           ;ReadAD24@flag_convert stored from wreg
  2797     13DE  00F9               	movwf	ReadAD24@flag_convert
  2798     13DF                     i1l2315:
  2799     13DF                     i1l308:	
  2800                           ;LIB16F_SPI.c: 98:     signed long DataADC;;LIB16F_SPI.c: 101:     while(PORTCbits.RC4);
  2801                           
  2802     13DF  1283               	bcf	3,5	;RP0=0, select bank0
  2803     13E0  1303               	bcf	3,6	;RP1=0, select bank0
  2804     13E1  1A07               	btfsc	7,4	;volatile
  2805     13E2  2BE4               	goto	u78_21
  2806     13E3  2BE5               	goto	u78_20
  2807     13E4                     u78_21:
  2808     13E4  2BDF               	goto	i1l308
  2809     13E5                     u78_20:
  2810     13E5                     i1l2317:
  2811                           
  2812                           ;LIB16F_SPI.c: 102:     ReadRegister_4bytesCS5532(cmd_convert);
  2813     13E5  0855               	movf	ReadAD24@cmd_convert,w
  2814     13E6  160A  118A  21E3  160A  118A  	fcall	_ReadRegister_4bytesCS5532
  2815     13EB                     i1l2319:
  2816                           
  2817                           ;LIB16F_SPI.c: 104:     DataADC = 0;
  2818     13EB  3000               	movlw	0
  2819     13EC  00FD               	movwf	ReadAD24@DataADC+3
  2820     13ED  3000               	movlw	0
  2821     13EE  00FC               	movwf	ReadAD24@DataADC+2
  2822     13EF  3000               	movlw	0
  2823     13F0  00FB               	movwf	ReadAD24@DataADC+1
  2824     13F1  3000               	movlw	0
  2825     13F2  00FA               	movwf	ReadAD24@DataADC
  2826     13F3                     i1l2321:
  2827                           
  2828                           ;LIB16F_SPI.c: 105:     if(flag_convert){
  2829     13F3  0879               	movf	ReadAD24@flag_convert,w
  2830     13F4  1903               	btfsc	3,2
  2831     13F5  2BF7               	goto	u79_21
  2832     13F6  2BF8               	goto	u79_20
  2833     13F7                     u79_21:
  2834     13F7  2C95               	goto	i1l2327
  2835     13F8                     u79_20:
  2836     13F8                     i1l2323:
  2837                           
  2838                           ;LIB16F_SPI.c: 106:         DataADC = DataADC | (signed long) BufferSPI[0]<<24;
  2839     13F8  087A               	movf	ReadAD24@DataADC,w
  2840     13F9  1283               	bcf	3,5	;RP0=0, select bank0
  2841     13FA  1303               	bcf	3,6	;RP1=0, select bank0
  2842     13FB  00D9               	movwf	??_ReadAD24
  2843     13FC  087B               	movf	ReadAD24@DataADC+1,w
  2844     13FD  00DA               	movwf	??_ReadAD24+1
  2845     13FE  087C               	movf	ReadAD24@DataADC+2,w
  2846     13FF  00DB               	movwf	??_ReadAD24+2
  2847     1400  087D               	movf	ReadAD24@DataADC+3,w
  2848     1401  00DC               	movwf	??_ReadAD24+3
  2849     1402  1683               	bsf	3,5	;RP0=1, select bank1
  2850     1403  1303               	bcf	3,6	;RP1=0, select bank1
  2851     1404  083C               	movf	_BufferSPI^(0+128),w
  2852     1405  1283               	bcf	3,5	;RP0=0, select bank0
  2853     1406  1303               	bcf	3,6	;RP1=0, select bank0
  2854     1407  00DD               	movwf	??_ReadAD24+4
  2855     1408  01DE               	clrf	??_ReadAD24+5
  2856     1409  01DF               	clrf	??_ReadAD24+6
  2857     140A  01E0               	clrf	??_ReadAD24+7
  2858     140B  3018               	movlw	24
  2859     140C                     u80_25:
  2860     140C  1003               	clrc
  2861     140D  0DDD               	rlf	??_ReadAD24+4,f
  2862     140E  0DDE               	rlf	??_ReadAD24+5,f
  2863     140F  0DDF               	rlf	??_ReadAD24+6,f
  2864     1410  0DE0               	rlf	??_ReadAD24+7,f
  2865     1411                     u80_20:
  2866     1411  3EFF               	addlw	-1
  2867     1412  1D03               	skipz
  2868     1413  2C0C               	goto	u80_25
  2869     1414  085D               	movf	??_ReadAD24+4,w
  2870     1415  04D9               	iorwf	??_ReadAD24,f
  2871     1416  085E               	movf	??_ReadAD24+5,w
  2872     1417  04DA               	iorwf	??_ReadAD24+1,f
  2873     1418  085F               	movf	??_ReadAD24+6,w
  2874     1419  04DB               	iorwf	??_ReadAD24+2,f
  2875     141A  0860               	movf	??_ReadAD24+7,w
  2876     141B  04DC               	iorwf	??_ReadAD24+3,f
  2877     141C  085C               	movf	??_ReadAD24+3,w
  2878     141D  00FD               	movwf	ReadAD24@DataADC+3
  2879     141E  085B               	movf	??_ReadAD24+2,w
  2880     141F  00FC               	movwf	ReadAD24@DataADC+2
  2881     1420  085A               	movf	??_ReadAD24+1,w
  2882     1421  00FB               	movwf	ReadAD24@DataADC+1
  2883     1422  0859               	movf	??_ReadAD24,w
  2884     1423  00FA               	movwf	ReadAD24@DataADC
  2885                           
  2886                           ;LIB16F_SPI.c: 107:         DataADC = DataADC | (signed long) BufferSPI[1]<<16;
  2887     1424  087A               	movf	ReadAD24@DataADC,w
  2888     1425  00D9               	movwf	??_ReadAD24
  2889     1426  087B               	movf	ReadAD24@DataADC+1,w
  2890     1427  00DA               	movwf	??_ReadAD24+1
  2891     1428  087C               	movf	ReadAD24@DataADC+2,w
  2892     1429  00DB               	movwf	??_ReadAD24+2
  2893     142A  087D               	movf	ReadAD24@DataADC+3,w
  2894     142B  00DC               	movwf	??_ReadAD24+3
  2895     142C  1683               	bsf	3,5	;RP0=1, select bank1
  2896     142D  1303               	bcf	3,6	;RP1=0, select bank1
  2897     142E  083D               	movf	(_BufferSPI^(0+128)+1),w
  2898     142F  1283               	bcf	3,5	;RP0=0, select bank0
  2899     1430  1303               	bcf	3,6	;RP1=0, select bank0
  2900     1431  00DD               	movwf	??_ReadAD24+4
  2901     1432  01DE               	clrf	??_ReadAD24+5
  2902     1433  01DF               	clrf	??_ReadAD24+6
  2903     1434  01E0               	clrf	??_ReadAD24+7
  2904     1435  3010               	movlw	16
  2905     1436                     u81_25:
  2906     1436  1003               	clrc
  2907     1437  0DDD               	rlf	??_ReadAD24+4,f
  2908     1438  0DDE               	rlf	??_ReadAD24+5,f
  2909     1439  0DDF               	rlf	??_ReadAD24+6,f
  2910     143A  0DE0               	rlf	??_ReadAD24+7,f
  2911     143B                     u81_20:
  2912     143B  3EFF               	addlw	-1
  2913     143C  1D03               	skipz
  2914     143D  2C36               	goto	u81_25
  2915     143E  085D               	movf	??_ReadAD24+4,w
  2916     143F  04D9               	iorwf	??_ReadAD24,f
  2917     1440  085E               	movf	??_ReadAD24+5,w
  2918     1441  04DA               	iorwf	??_ReadAD24+1,f
  2919     1442  085F               	movf	??_ReadAD24+6,w
  2920     1443  04DB               	iorwf	??_ReadAD24+2,f
  2921     1444  0860               	movf	??_ReadAD24+7,w
  2922     1445  04DC               	iorwf	??_ReadAD24+3,f
  2923     1446  085C               	movf	??_ReadAD24+3,w
  2924     1447  00FD               	movwf	ReadAD24@DataADC+3
  2925     1448  085B               	movf	??_ReadAD24+2,w
  2926     1449  00FC               	movwf	ReadAD24@DataADC+2
  2927     144A  085A               	movf	??_ReadAD24+1,w
  2928     144B  00FB               	movwf	ReadAD24@DataADC+1
  2929     144C  0859               	movf	??_ReadAD24,w
  2930     144D  00FA               	movwf	ReadAD24@DataADC
  2931                           
  2932                           ;LIB16F_SPI.c: 108:         DataADC = DataADC | (signed long) BufferSPI[2]<<8;
  2933     144E  087A               	movf	ReadAD24@DataADC,w
  2934     144F  00D9               	movwf	??_ReadAD24
  2935     1450  087B               	movf	ReadAD24@DataADC+1,w
  2936     1451  00DA               	movwf	??_ReadAD24+1
  2937     1452  087C               	movf	ReadAD24@DataADC+2,w
  2938     1453  00DB               	movwf	??_ReadAD24+2
  2939     1454  087D               	movf	ReadAD24@DataADC+3,w
  2940     1455  00DC               	movwf	??_ReadAD24+3
  2941     1456  1683               	bsf	3,5	;RP0=1, select bank1
  2942     1457  1303               	bcf	3,6	;RP1=0, select bank1
  2943     1458  083E               	movf	(_BufferSPI^(0+128)+2),w
  2944     1459  1283               	bcf	3,5	;RP0=0, select bank0
  2945     145A  1303               	bcf	3,6	;RP1=0, select bank0
  2946     145B  00DD               	movwf	??_ReadAD24+4
  2947     145C  01DE               	clrf	??_ReadAD24+5
  2948     145D  01DF               	clrf	??_ReadAD24+6
  2949     145E  01E0               	clrf	??_ReadAD24+7
  2950     145F  3008               	movlw	8
  2951     1460                     u82_25:
  2952     1460  1003               	clrc
  2953     1461  0DDD               	rlf	??_ReadAD24+4,f
  2954     1462  0DDE               	rlf	??_ReadAD24+5,f
  2955     1463  0DDF               	rlf	??_ReadAD24+6,f
  2956     1464  0DE0               	rlf	??_ReadAD24+7,f
  2957     1465                     u82_20:
  2958     1465  3EFF               	addlw	-1
  2959     1466  1D03               	skipz
  2960     1467  2C60               	goto	u82_25
  2961     1468  085D               	movf	??_ReadAD24+4,w
  2962     1469  04D9               	iorwf	??_ReadAD24,f
  2963     146A  085E               	movf	??_ReadAD24+5,w
  2964     146B  04DA               	iorwf	??_ReadAD24+1,f
  2965     146C  085F               	movf	??_ReadAD24+6,w
  2966     146D  04DB               	iorwf	??_ReadAD24+2,f
  2967     146E  0860               	movf	??_ReadAD24+7,w
  2968     146F  04DC               	iorwf	??_ReadAD24+3,f
  2969     1470  085C               	movf	??_ReadAD24+3,w
  2970     1471  00FD               	movwf	ReadAD24@DataADC+3
  2971     1472  085B               	movf	??_ReadAD24+2,w
  2972     1473  00FC               	movwf	ReadAD24@DataADC+2
  2973     1474  085A               	movf	??_ReadAD24+1,w
  2974     1475  00FB               	movwf	ReadAD24@DataADC+1
  2975     1476  0859               	movf	??_ReadAD24,w
  2976     1477  00FA               	movwf	ReadAD24@DataADC
  2977     1478                     i1l2325:
  2978                           
  2979                           ;LIB16F_SPI.c: 110:         DataADC = DataADC/256;
  2980     1478  3000               	movlw	0
  2981     1479  00F3               	movwf	___aldiv@divisor+3
  2982     147A  3000               	movlw	0
  2983     147B  00F2               	movwf	___aldiv@divisor+2
  2984     147C  3001               	movlw	1
  2985     147D  00F1               	movwf	___aldiv@divisor+1
  2986     147E  3000               	movlw	0
  2987     147F  00F0               	movwf	___aldiv@divisor
  2988     1480  087D               	movf	ReadAD24@DataADC+3,w
  2989     1481  00F7               	movwf	___aldiv@dividend+3
  2990     1482  087C               	movf	ReadAD24@DataADC+2,w
  2991     1483  00F6               	movwf	___aldiv@dividend+2
  2992     1484  087B               	movf	ReadAD24@DataADC+1,w
  2993     1485  00F5               	movwf	___aldiv@dividend+1
  2994     1486  087A               	movf	ReadAD24@DataADC,w
  2995     1487  00F4               	movwf	___aldiv@dividend
  2996     1488  160A  118A  2341  160A  118A  	fcall	___aldiv
  2997     148D  0873               	movf	?___aldiv+3,w
  2998     148E  00FD               	movwf	ReadAD24@DataADC+3
  2999     148F  0872               	movf	?___aldiv+2,w
  3000     1490  00FC               	movwf	ReadAD24@DataADC+2
  3001     1491  0871               	movf	?___aldiv+1,w
  3002     1492  00FB               	movwf	ReadAD24@DataADC+1
  3003     1493  0870               	movf	?___aldiv,w
  3004     1494  00FA               	movwf	ReadAD24@DataADC
  3005     1495                     i1l2327:
  3006                           
  3007                           ;LIB16F_SPI.c: 113:     return DataADC;
  3008     1495  087D               	movf	ReadAD24@DataADC+3,w
  3009     1496  1283               	bcf	3,5	;RP0=0, select bank0
  3010     1497  1303               	bcf	3,6	;RP1=0, select bank0
  3011     1498  00D8               	movwf	?_ReadAD24+3
  3012     1499  087C               	movf	ReadAD24@DataADC+2,w
  3013     149A  00D7               	movwf	?_ReadAD24+2
  3014     149B  087B               	movf	ReadAD24@DataADC+1,w
  3015     149C  00D6               	movwf	?_ReadAD24+1
  3016     149D  087A               	movf	ReadAD24@DataADC,w
  3017     149E  00D5               	movwf	?_ReadAD24
  3018     149F                     i1l312:
  3019     149F  0008               	return
  3020     14A0                     __end_of_ReadAD24:
  3021                           
  3022                           	psect	text20
  3023     1341                     __ptext20:	
  3024 ;; *************** function ___aldiv *****************
  3025 ;; Defined at:
  3026 ;;		line 5 in file "C:\Program Files\Microchip\xc8\v2.41\pic\sources\c90\common\aldiv.c"
  3027 ;; Parameters:    Size  Location     Type
  3028 ;;  divisor         4    0[COMMON] long 
  3029 ;;  dividend        4    4[COMMON] long 
  3030 ;; Auto vars:     Size  Location     Type
  3031 ;;  quotient        4    2[BANK0 ] long 
  3032 ;;  sign            1    1[BANK0 ] unsigned char 
  3033 ;;  counter         1    0[BANK0 ] unsigned char 
  3034 ;; Return value:  Size  Location     Type
  3035 ;;                  4    0[COMMON] long 
  3036 ;; Registers used:
  3037 ;;		wreg, status,2, status,0, btemp+1
  3038 ;; Tracked objects:
  3039 ;;		On entry : 0/0
  3040 ;;		On exit  : 0/0
  3041 ;;		Unchanged: 0/0
  3042 ;; Data sizes:     COMMON   BANK0   BANK1   BANK3   BANK2
  3043 ;;      Params:         8       0       0       0       0
  3044 ;;      Locals:         0       6       0       0       0
  3045 ;;      Temps:          1       0       0       0       0
  3046 ;;      Totals:         9       6       0       0       0
  3047 ;;Total ram usage:       15 bytes
  3048 ;; Hardware stack levels used: 1
  3049 ;; This function calls:
  3050 ;;		Nothing
  3051 ;; This function is called by:
  3052 ;;		_Interrups
  3053 ;;		_ReadAD24
  3054 ;; This function uses a non-reentrant model
  3055 ;;
  3056                           
  3057     1341                     ___aldiv:	
  3058                           ;psect for function ___aldiv
  3059                           
  3060     1341                     i1l2265:	
  3061                           ;incstack = 0
  3062                           ; Regs used in ___aldiv: [wreg+status,2+status,0+btemp+1]
  3063                           
  3064     1341  1283               	bcf	3,5	;RP0=0, select bank0
  3065     1342  1303               	bcf	3,6	;RP1=0, select bank0
  3066     1343  01D0               	clrf	___aldiv@sign
  3067     1344                     i1l2267:
  3068     1344  1FF3               	btfss	___aldiv@divisor+3,7
  3069     1345  2B47               	goto	u67_21
  3070     1346  2B48               	goto	u67_20
  3071     1347                     u67_21:
  3072     1347  2B55               	goto	i1l590
  3073     1348                     u67_20:
  3074     1348                     i1l2269:
  3075     1348  09F0               	comf	___aldiv@divisor,f
  3076     1349  09F1               	comf	___aldiv@divisor+1,f
  3077     134A  09F2               	comf	___aldiv@divisor+2,f
  3078     134B  09F3               	comf	___aldiv@divisor+3,f
  3079     134C  0AF0               	incf	___aldiv@divisor,f
  3080     134D  1903               	skipnz
  3081     134E  0AF1               	incf	___aldiv@divisor+1,f
  3082     134F  1903               	skipnz
  3083     1350  0AF2               	incf	___aldiv@divisor+2,f
  3084     1351  1903               	skipnz
  3085     1352  0AF3               	incf	___aldiv@divisor+3,f
  3086     1353  01D0               	clrf	___aldiv@sign
  3087     1354  0AD0               	incf	___aldiv@sign,f
  3088     1355                     i1l590:
  3089     1355  1FF7               	btfss	___aldiv@dividend+3,7
  3090     1356  2B58               	goto	u68_21
  3091     1357  2B59               	goto	u68_20
  3092     1358                     u68_21:
  3093     1358  2B68               	goto	i1l2275
  3094     1359                     u68_20:
  3095     1359                     i1l2271:
  3096     1359  09F4               	comf	___aldiv@dividend,f
  3097     135A  09F5               	comf	___aldiv@dividend+1,f
  3098     135B  09F6               	comf	___aldiv@dividend+2,f
  3099     135C  09F7               	comf	___aldiv@dividend+3,f
  3100     135D  0AF4               	incf	___aldiv@dividend,f
  3101     135E  1903               	skipnz
  3102     135F  0AF5               	incf	___aldiv@dividend+1,f
  3103     1360  1903               	skipnz
  3104     1361  0AF6               	incf	___aldiv@dividend+2,f
  3105     1362  1903               	skipnz
  3106     1363  0AF7               	incf	___aldiv@dividend+3,f
  3107     1364                     i1l2273:
  3108     1364  3001               	movlw	1
  3109     1365  00FF               	movwf	btemp+1
  3110     1366  087F               	movf	btemp+1,w
  3111     1367  06D0               	xorwf	___aldiv@sign,f
  3112     1368                     i1l2275:
  3113     1368  3000               	movlw	0
  3114     1369  00D4               	movwf	___aldiv@quotient+3
  3115     136A  3000               	movlw	0
  3116     136B  00D3               	movwf	___aldiv@quotient+2
  3117     136C  3000               	movlw	0
  3118     136D  00D2               	movwf	___aldiv@quotient+1
  3119     136E  3000               	movlw	0
  3120     136F  00D1               	movwf	___aldiv@quotient
  3121     1370                     i1l2277:
  3122     1370  0873               	movf	___aldiv@divisor+3,w
  3123     1371  0472               	iorwf	___aldiv@divisor+2,w
  3124     1372  0471               	iorwf	___aldiv@divisor+1,w
  3125     1373  0470               	iorwf	___aldiv@divisor,w
  3126     1374  1903               	skipnz
  3127     1375  2B77               	goto	u69_21
  3128     1376  2B78               	goto	u69_20
  3129     1377                     u69_21:
  3130     1377  2BC5               	goto	i1l2299
  3131     1378                     u69_20:
  3132     1378                     i1l2279:
  3133     1378  01CF               	clrf	___aldiv@counter
  3134     1379  0ACF               	incf	___aldiv@counter,f
  3135     137A  2B88               	goto	i1l2285
  3136     137B                     i1l2281:
  3137     137B  3001               	movlw	1
  3138     137C  00F8               	movwf	??___aldiv
  3139     137D                     u70_25:
  3140     137D  1003               	clrc
  3141     137E  0DF0               	rlf	___aldiv@divisor,f
  3142     137F  0DF1               	rlf	___aldiv@divisor+1,f
  3143     1380  0DF2               	rlf	___aldiv@divisor+2,f
  3144     1381  0DF3               	rlf	___aldiv@divisor+3,f
  3145     1382  0BF8               	decfsz	??___aldiv,f
  3146     1383  2B7D               	goto	u70_25
  3147     1384                     i1l2283:
  3148     1384  3001               	movlw	1
  3149     1385  00FF               	movwf	btemp+1
  3150     1386  087F               	movf	btemp+1,w
  3151     1387  07CF               	addwf	___aldiv@counter,f
  3152     1388                     i1l2285:
  3153     1388  1FF3               	btfss	___aldiv@divisor+3,7
  3154     1389  2B8B               	goto	u71_21
  3155     138A  2B8C               	goto	u71_20
  3156     138B                     u71_21:
  3157     138B  2B7B               	goto	i1l2281
  3158     138C                     u71_20:
  3159     138C                     i1l2287:
  3160     138C  3001               	movlw	1
  3161     138D  00F8               	movwf	??___aldiv
  3162     138E                     u72_25:
  3163     138E  1003               	clrc
  3164     138F  0DD1               	rlf	___aldiv@quotient,f
  3165     1390  0DD2               	rlf	___aldiv@quotient+1,f
  3166     1391  0DD3               	rlf	___aldiv@quotient+2,f
  3167     1392  0DD4               	rlf	___aldiv@quotient+3,f
  3168     1393  0BF8               	decfsz	??___aldiv,f
  3169     1394  2B8E               	goto	u72_25
  3170     1395                     i1l2289:
  3171     1395  0873               	movf	___aldiv@divisor+3,w
  3172     1396  0277               	subwf	___aldiv@dividend+3,w
  3173     1397  1D03               	skipz
  3174     1398  2BA3               	goto	u73_25
  3175     1399  0872               	movf	___aldiv@divisor+2,w
  3176     139A  0276               	subwf	___aldiv@dividend+2,w
  3177     139B  1D03               	skipz
  3178     139C  2BA3               	goto	u73_25
  3179     139D  0871               	movf	___aldiv@divisor+1,w
  3180     139E  0275               	subwf	___aldiv@dividend+1,w
  3181     139F  1D03               	skipz
  3182     13A0  2BA3               	goto	u73_25
  3183     13A1  0870               	movf	___aldiv@divisor,w
  3184     13A2  0274               	subwf	___aldiv@dividend,w
  3185     13A3                     u73_25:
  3186     13A3  1C03               	skipc
  3187     13A4  2BA6               	goto	u73_21
  3188     13A5  2BA7               	goto	u73_20
  3189     13A6                     u73_21:
  3190     13A6  2BB6               	goto	i1l2295
  3191     13A7                     u73_20:
  3192     13A7                     i1l2291:
  3193     13A7  0870               	movf	___aldiv@divisor,w
  3194     13A8  02F4               	subwf	___aldiv@dividend,f
  3195     13A9  0871               	movf	___aldiv@divisor+1,w
  3196     13AA  1C03               	skipc
  3197     13AB  0F71               	incfsz	___aldiv@divisor+1,w
  3198     13AC  02F5               	subwf	___aldiv@dividend+1,f
  3199     13AD  0872               	movf	___aldiv@divisor+2,w
  3200     13AE  1C03               	skipc
  3201     13AF  0F72               	incfsz	___aldiv@divisor+2,w
  3202     13B0  02F6               	subwf	___aldiv@dividend+2,f
  3203     13B1  0873               	movf	___aldiv@divisor+3,w
  3204     13B2  1C03               	skipc
  3205     13B3  0F73               	incfsz	___aldiv@divisor+3,w
  3206     13B4  02F7               	subwf	___aldiv@dividend+3,f
  3207     13B5                     i1l2293:
  3208     13B5  1451               	bsf	___aldiv@quotient,0
  3209     13B6                     i1l2295:
  3210     13B6  3001               	movlw	1
  3211     13B7                     u74_25:
  3212     13B7  1003               	clrc
  3213     13B8  0CF3               	rrf	___aldiv@divisor+3,f
  3214     13B9  0CF2               	rrf	___aldiv@divisor+2,f
  3215     13BA  0CF1               	rrf	___aldiv@divisor+1,f
  3216     13BB  0CF0               	rrf	___aldiv@divisor,f
  3217     13BC  3EFF               	addlw	-1
  3218     13BD  1D03               	skipz
  3219     13BE  2BB7               	goto	u74_25
  3220     13BF                     i1l2297:
  3221     13BF  3001               	movlw	1
  3222     13C0  02CF               	subwf	___aldiv@counter,f
  3223     13C1  1D03               	btfss	3,2
  3224     13C2  2BC4               	goto	u75_21
  3225     13C3  2BC5               	goto	u75_20
  3226     13C4                     u75_21:
  3227     13C4  2B8C               	goto	i1l2287
  3228     13C5                     u75_20:
  3229     13C5                     i1l2299:
  3230     13C5  0850               	movf	___aldiv@sign,w
  3231     13C6  1903               	btfsc	3,2
  3232     13C7  2BC9               	goto	u76_21
  3233     13C8  2BCA               	goto	u76_20
  3234     13C9                     u76_21:
  3235     13C9  2BD5               	goto	i1l2303
  3236     13CA                     u76_20:
  3237     13CA                     i1l2301:
  3238     13CA  09D1               	comf	___aldiv@quotient,f
  3239     13CB  09D2               	comf	___aldiv@quotient+1,f
  3240     13CC  09D3               	comf	___aldiv@quotient+2,f
  3241     13CD  09D4               	comf	___aldiv@quotient+3,f
  3242     13CE  0AD1               	incf	___aldiv@quotient,f
  3243     13CF  1903               	skipnz
  3244     13D0  0AD2               	incf	___aldiv@quotient+1,f
  3245     13D1  1903               	skipnz
  3246     13D2  0AD3               	incf	___aldiv@quotient+2,f
  3247     13D3  1903               	skipnz
  3248     13D4  0AD4               	incf	___aldiv@quotient+3,f
  3249     13D5                     i1l2303:
  3250     13D5  0854               	movf	___aldiv@quotient+3,w
  3251     13D6  00F3               	movwf	?___aldiv+3
  3252     13D7  0853               	movf	___aldiv@quotient+2,w
  3253     13D8  00F2               	movwf	?___aldiv+2
  3254     13D9  0852               	movf	___aldiv@quotient+1,w
  3255     13DA  00F1               	movwf	?___aldiv+1
  3256     13DB  0851               	movf	___aldiv@quotient,w
  3257     13DC  00F0               	movwf	?___aldiv
  3258     13DD                     i1l600:
  3259     13DD  0008               	return
  3260     13DE                     __end_of___aldiv:
  3261                           
  3262                           	psect	text21
  3263     11E3                     __ptext21:	
  3264 ;; *************** function _ReadRegister_4bytesCS5532 *****************
  3265 ;; Defined at:
  3266 ;;		line 75 in file "LIB16F_SPI.c"
  3267 ;; Parameters:    Size  Location     Type
  3268 ;;  command         1    wreg     unsigned char 
  3269 ;; Auto vars:     Size  Location     Type
  3270 ;;  command         1    1[COMMON] unsigned char 
  3271 ;; Return value:  Size  Location     Type
  3272 ;;                  1    wreg      void 
  3273 ;; Registers used:
  3274 ;;		wreg, status,2, status,0, pclath, cstack
  3275 ;; Tracked objects:
  3276 ;;		On entry : 0/0
  3277 ;;		On exit  : 0/0
  3278 ;;		Unchanged: 0/0
  3279 ;; Data sizes:     COMMON   BANK0   BANK1   BANK3   BANK2
  3280 ;;      Params:         0       0       0       0       0
  3281 ;;      Locals:         1       0       0       0       0
  3282 ;;      Temps:          0       0       0       0       0
  3283 ;;      Totals:         1       0       0       0       0
  3284 ;;Total ram usage:        1 bytes
  3285 ;; Hardware stack levels used: 1
  3286 ;; Hardware stack levels required when called: 1
  3287 ;; This function calls:
  3288 ;;		_TransferByte_SPI
  3289 ;; This function is called by:
  3290 ;;		_Interrups
  3291 ;;		_ResetCS5532
  3292 ;;		_InitCS5532
  3293 ;;		_ReadAD24
  3294 ;; This function uses a non-reentrant model
  3295 ;;
  3296                           
  3297     11E3                     _ReadRegister_4bytesCS5532:	
  3298                           ;psect for function _ReadRegister_4bytesCS5532
  3299                           
  3300                           
  3301                           ;incstack = 0
  3302                           ; Regs used in _ReadRegister_4bytesCS5532: [wreg+status,2+status,0+pclath+cstack]
  3303                           ;ReadRegister_4bytesCS5532@command stored from wreg
  3304     11E3  00F1               	movwf	ReadRegister_4bytesCS5532@command
  3305     11E4                     i1l2253:
  3306                           
  3307                           ;LIB16F_SPI.c: 77:     TransferByte_SPI(command);
  3308     11E4  0871               	movf	ReadRegister_4bytesCS5532@command,w
  3309     11E5  160A  118A  210B  160A  118A  	fcall	_TransferByte_SPI
  3310     11EA                     i1l2255:
  3311                           
  3312                           ;LIB16F_SPI.c: 78:     BufferSPI[0] = TransferByte_SPI(0x00);
  3313     11EA  3000               	movlw	0
  3314     11EB  160A  118A  210B  160A  118A  	fcall	_TransferByte_SPI
  3315     11F0  1683               	bsf	3,5	;RP0=1, select bank1
  3316     11F1  1303               	bcf	3,6	;RP1=0, select bank1
  3317     11F2  00BC               	movwf	_BufferSPI^(0+128)
  3318     11F3                     i1l2257:
  3319                           
  3320                           ;LIB16F_SPI.c: 79:     BufferSPI[1] = TransferByte_SPI(0x00);
  3321     11F3  3000               	movlw	0
  3322     11F4  160A  118A  210B  160A  118A  	fcall	_TransferByte_SPI
  3323     11F9  1683               	bsf	3,5	;RP0=1, select bank1
  3324     11FA  1303               	bcf	3,6	;RP1=0, select bank1
  3325     11FB  00BD               	movwf	(_BufferSPI^(0+128)+1)
  3326     11FC                     i1l2259:
  3327                           
  3328                           ;LIB16F_SPI.c: 80:     BufferSPI[2] = TransferByte_SPI(0x00);
  3329     11FC  3000               	movlw	0
  3330     11FD  160A  118A  210B  160A  118A  	fcall	_TransferByte_SPI
  3331     1202  1683               	bsf	3,5	;RP0=1, select bank1
  3332     1203  1303               	bcf	3,6	;RP1=0, select bank1
  3333     1204  00BE               	movwf	(_BufferSPI^(0+128)+2)
  3334     1205                     i1l2261:
  3335                           
  3336                           ;LIB16F_SPI.c: 81:     BufferSPI[3] = TransferByte_SPI(0x00);
  3337     1205  3000               	movlw	0
  3338     1206  160A  118A  210B  160A  118A  	fcall	_TransferByte_SPI
  3339     120B  1683               	bsf	3,5	;RP0=1, select bank1
  3340     120C  1303               	bcf	3,6	;RP1=0, select bank1
  3341     120D  00BF               	movwf	(_BufferSPI^(0+128)+3)
  3342     120E                     i1l302:
  3343     120E  0008               	return
  3344     120F                     __end_of_ReadRegister_4bytesCS5532:
  3345                           
  3346                           	psect	text22
  3347     110B                     __ptext22:	
  3348 ;; *************** function _TransferByte_SPI *****************
  3349 ;; Defined at:
  3350 ;;		line 29 in file "LIB16F_SPI.c"
  3351 ;; Parameters:    Size  Location     Type
  3352 ;;  data            1    wreg     unsigned char 
  3353 ;; Auto vars:     Size  Location     Type
  3354 ;;  data            1    0[COMMON] unsigned char 
  3355 ;;  valor           1    0        unsigned char 
  3356 ;; Return value:  Size  Location     Type
  3357 ;;                  1    wreg      unsigned char 
  3358 ;; Registers used:
  3359 ;;		wreg
  3360 ;; Tracked objects:
  3361 ;;		On entry : 0/0
  3362 ;;		On exit  : 0/0
  3363 ;;		Unchanged: 0/0
  3364 ;; Data sizes:     COMMON   BANK0   BANK1   BANK3   BANK2
  3365 ;;      Params:         0       0       0       0       0
  3366 ;;      Locals:         1       0       0       0       0
  3367 ;;      Temps:          0       0       0       0       0
  3368 ;;      Totals:         1       0       0       0       0
  3369 ;;Total ram usage:        1 bytes
  3370 ;; Hardware stack levels used: 1
  3371 ;; This function calls:
  3372 ;;		Nothing
  3373 ;; This function is called by:
  3374 ;;		_Interrups
  3375 ;;		_ResetCS5532
  3376 ;;		_ReadRegister_4bytesCS5532
  3377 ;;		_WriteRegister_4bytesCS5532
  3378 ;; This function uses a non-reentrant model
  3379 ;;
  3380                           
  3381     110B                     _TransferByte_SPI:	
  3382                           ;psect for function _TransferByte_SPI
  3383                           
  3384                           
  3385                           ;incstack = 0
  3386                           ; Regs used in _TransferByte_SPI: [wreg]
  3387                           ;TransferByte_SPI@data stored from wreg
  3388     110B  00F0               	movwf	TransferByte_SPI@data
  3389     110C                     i1l2243:
  3390     110C  1283               	bcf	3,5	;RP0=0, select bank0
  3391     110D  1303               	bcf	3,6	;RP1=0, select bank0
  3392     110E  0813               	movf	19,w	;volatile
  3393                           
  3394                           ;LIB16F_SPI.c: 33:     SSPBUF = data;
  3395     110F  0870               	movf	TransferByte_SPI@data,w
  3396     1110  0093               	movwf	19	;volatile
  3397     1111                     i1l288:	
  3398                           ;LIB16F_SPI.c: 34:     while(!SSPSTATbits.BF);
  3399                           
  3400     1111  1683               	bsf	3,5	;RP0=1, select bank1
  3401     1112  1303               	bcf	3,6	;RP1=0, select bank1
  3402     1113  1C14               	btfss	20,0	;volatile
  3403     1114  2916               	goto	u65_21
  3404     1115  2917               	goto	u65_20
  3405     1116                     u65_21:
  3406     1116  2911               	goto	i1l288
  3407     1117                     u65_20:
  3408     1117                     i1l2245:
  3409                           
  3410                           ;LIB16F_SPI.c: 35:     return SSPBUF;
  3411     1117  1283               	bcf	3,5	;RP0=0, select bank0
  3412     1118  1303               	bcf	3,6	;RP1=0, select bank0
  3413     1119  0813               	movf	19,w	;volatile
  3414     111A                     i1l291:
  3415     111A  0008               	return
  3416     111B                     __end_of_TransferByte_SPI:
  3417     007E                     btemp	set	126	;btemp
  3418     007E                     wtemp0	set	126
  3419                           
  3420                           	psect	idloc
  3421                           
  3422                           ;Config register IDLOC0 @ 0x2000
  3423                           ;	unspecified, using default values
  3424     2000                     	org	8192
  3425     2000  3FFF               	dw	16383
  3426                           
  3427                           ;Config register IDLOC1 @ 0x2001
  3428                           ;	unspecified, using default values
  3429     2001                     	org	8193
  3430     2001  3FFF               	dw	16383
  3431                           
  3432                           ;Config register IDLOC2 @ 0x2002
  3433                           ;	unspecified, using default values
  3434     2002                     	org	8194
  3435     2002  3FFF               	dw	16383
  3436                           
  3437                           ;Config register IDLOC3 @ 0x2003
  3438                           ;	unspecified, using default values
  3439     2003                     	org	8195
  3440     2003  3FFF               	dw	16383
  3441                           
  3442                           	psect	config
  3443                           
  3444                           ;Config register CONFIG @ 0x2007
  3445                           ;	Oscillator Selection bits
  3446                           ;	FOSC = HS, HS oscillator
  3447                           ;	Watchdog Timer Enable bit
  3448                           ;	WDTE = OFF, WDT disabled
  3449                           ;	Power-up Timer Enable bit
  3450                           ;	PWRTE = ON, PWRT enabled
  3451                           ;	Brown-out Reset Enable bit
  3452                           ;	BOREN = OFF, BOR disabled
  3453                           ;	Low-Voltage (Single-Supply) In-Circuit Serial Programming Enable bit
  3454                           ;	LVP = OFF, RB3 is digital I/O, HV on MCLR must be used for programming
  3455                           ;	Data EEPROM Memory Code Protection bit
  3456                           ;	CPD = OFF, Data EEPROM code protection off
  3457                           ;	Flash Program Memory Write Enable bits
  3458                           ;	WRT = OFF, Write protection off; all program memory may be written to by EECON control
  3459                           ;	In-Circuit Debugger Mode bit
  3460                           ;	DEBUG = 0x1, unprogrammed default
  3461                           ;	Flash Program Memory Code Protection bit
  3462                           ;	CP = OFF, Code protection off
  3463     2007                     	org	8199
  3464     2007  3F32               	dw	16178
  3465                           
  3466                           	psect	text7_split_1
  3467     0938                     i1l2583:
  3468                           
  3469                           ;Digitizer24bitsV1.c: 69:                     CleanHolding();
  3470     0938  160A  118A  212B  120A  158A  	fcall	_CleanHolding
  3471     093D                     i1l2585:
  3472                           
  3473                           ;Digitizer24bitsV1.c: 71:                     PORTB = 0x28;
  3474     093D  3028               	movlw	40
  3475     093E  1283               	bcf	3,5	;RP0=0, select bank0
  3476     093F  1303               	bcf	3,6	;RP1=0, select bank0
  3477     0940  0086               	movwf	6	;volatile
  3478     0941                     i1l2587:
  3479                           
  3480                           ;Digitizer24bitsV1.c: 72:                     _delay((unsigned long)((7)*(9830400UL/4000
      +                          .0)));
  3481     0941  3017               	movlw	23
  3482     0942  1283               	bcf	3,5	;RP0=0, select bank0
  3483     0943  1303               	bcf	3,6	;RP1=0, select bank0
  3484     0944  00E3               	movwf	??_Interrups+1
  3485     0945  3055               	movlw	85
  3486     0946  00E2               	movwf	??_Interrups
  3487     0947                     u132_27:
  3488     0947  0BE2               	decfsz	??_Interrups,f
  3489     0948  2947               	goto	u132_27
  3490     0949  0BE3               	decfsz	??_Interrups+1,f
  3491     094A  2947               	goto	u132_27
  3492     094B  0000               	nop
  3493     094C                     i1l2589:
  3494                           
  3495                           ;Digitizer24bitsV1.c: 73:                     SumData_Z = 0;
  3496     094C  3000               	movlw	0
  3497     094D  1283               	bcf	3,5	;RP0=0, select bank0
  3498     094E  1303               	bcf	3,6	;RP1=0, select bank0
  3499     094F  00C3               	movwf	_SumData_Z+3
  3500     0950  3000               	movlw	0
  3501     0951  00C2               	movwf	_SumData_Z+2
  3502     0952  3000               	movlw	0
  3503     0953  00C1               	movwf	_SumData_Z+1
  3504     0954  3000               	movlw	0
  3505     0955  00C0               	movwf	_SumData_Z
  3506     0956                     i1l2591:
  3507                           
  3508                           ;Digitizer24bitsV1.c: 74:                     ReadAD24(0,0x00);
  3509     0956  01D5               	clrf	ReadAD24@cmd_convert
  3510     0957  3000               	movlw	0
  3511     0958  160A  118A  23DE  120A  158A  	fcall	_ReadAD24
  3512     095D                     i1l2593:
  3513                           
  3514                           ;Digitizer24bitsV1.c: 75:                     for(conta=0; conta<5; conta++){
  3515     095D  1283               	bcf	3,5	;RP0=0, select bank0
  3516     095E  1303               	bcf	3,6	;RP1=0, select bank0
  3517     095F  01EB               	clrf	Interrups@conta
  3518     0960                     i1l2595:
  3519     0960  3005               	movlw	5
  3520     0961  026B               	subwf	Interrups@conta,w
  3521     0962  1C03               	skipc
  3522     0963  2965               	goto	u100_21
  3523     0964  2966               	goto	u100_20
  3524     0965                     u100_21:
  3525     0965  2967               	goto	i1l2599
  3526     0966                     u100_20:
  3527     0966  29A0               	goto	i1l2607
  3528     0967                     i1l2599:
  3529                           
  3530                           ;Digitizer24bitsV1.c: 76:                         Data_Z = ReadAD24(1,0x00);
  3531     0967  01D5               	clrf	ReadAD24@cmd_convert
  3532     0968  3001               	movlw	1
  3533     0969  160A  118A  23DE  120A  158A  	fcall	_ReadAD24
  3534     096E  1283               	bcf	3,5	;RP0=0, select bank0
  3535     096F  1303               	bcf	3,6	;RP1=0, select bank0
  3536     0970  0858               	movf	?_ReadAD24+3,w
  3537     0971  00AF               	movwf	_Data_Z+3
  3538     0972  0857               	movf	?_ReadAD24+2,w
  3539     0973  00AE               	movwf	_Data_Z+2
  3540     0974  0856               	movf	?_ReadAD24+1,w
  3541     0975  00AD               	movwf	_Data_Z+1
  3542     0976  0855               	movf	?_ReadAD24,w
  3543     0977  00AC               	movwf	_Data_Z
  3544     0978                     i1l2601:
  3545                           
  3546                           ;Digitizer24bitsV1.c: 77:                         SumData_Z = SumData_Z + Data_Z;
  3547     0978  0840               	movf	_SumData_Z,w
  3548     0979  072C               	addwf	_Data_Z,w
  3549     097A  00E2               	movwf	??_Interrups
  3550     097B  3000               	movlw	0
  3551     097C  1803               	skipnc
  3552     097D  3001               	movlw	1
  3553     097E  0741               	addwf	_SumData_Z+1,w
  3554     097F  01E4               	clrf	??_Interrups+2
  3555     0980  1803               	skipnc
  3556     0981  0AE4               	incf	??_Interrups+2,f
  3557     0982  072D               	addwf	_Data_Z+1,w
  3558     0983  00E3               	movwf	??_Interrups+1
  3559     0984  1803               	skipnc
  3560     0985  0AE4               	incf	??_Interrups+2,f
  3561     0986  0842               	movf	_SumData_Z+2,w
  3562     0987  0764               	addwf	??_Interrups+2,w
  3563     0988  01E5               	clrf	??_Interrups+3
  3564     0989  1803               	skipnc
  3565     098A  0AE5               	incf	??_Interrups+3,f
  3566     098B  072E               	addwf	_Data_Z+2,w
  3567     098C  00E4               	movwf	??_Interrups+2
  3568     098D  1803               	skipnc
  3569     098E  0AE5               	incf	??_Interrups+3,f
  3570     098F  0843               	movf	_SumData_Z+3,w
  3571     0990  0765               	addwf	??_Interrups+3,w
  3572     0991  072F               	addwf	_Data_Z+3,w
  3573     0992  00E5               	movwf	??_Interrups+3
  3574     0993  0865               	movf	??_Interrups+3,w
  3575     0994  00C3               	movwf	_SumData_Z+3
  3576     0995  0864               	movf	??_Interrups+2,w
  3577     0996  00C2               	movwf	_SumData_Z+2
  3578     0997  0863               	movf	??_Interrups+1,w
  3579     0998  00C1               	movwf	_SumData_Z+1
  3580     0999  0862               	movf	??_Interrups,w
  3581     099A  00C0               	movwf	_SumData_Z
  3582     099B                     i1l2603:
  3583                           
  3584                           ;Digitizer24bitsV1.c: 78:                     }
  3585     099B  3001               	movlw	1
  3586     099C  00FF               	movwf	btemp+1
  3587     099D  087F               	movf	btemp+1,w
  3588     099E  07EB               	addwf	Interrups@conta,f
  3589     099F  2960               	goto	i1l2595
  3590     09A0                     i1l2607:
  3591                           
  3592                           ;Digitizer24bitsV1.c: 80:                     CleanHolding();
  3593     09A0  160A  118A  212B  120A  158A  	fcall	_CleanHolding
  3594     09A5                     i1l2609:
  3595                           
  3596                           ;Digitizer24bitsV1.c: 82:                     PORTB = 0x08;
  3597     09A5  3008               	movlw	8
  3598     09A6  1283               	bcf	3,5	;RP0=0, select bank0
  3599     09A7  1303               	bcf	3,6	;RP1=0, select bank0
  3600     09A8  0086               	movwf	6	;volatile
  3601     09A9                     i1l2611:
  3602                           
  3603                           ;Digitizer24bitsV1.c: 83:                     _delay((unsigned long)((7)*(9830400UL/4000
      +                          .0)));
  3604     09A9  3017               	movlw	23
  3605     09AA  1283               	bcf	3,5	;RP0=0, select bank0
  3606     09AB  1303               	bcf	3,6	;RP1=0, select bank0
  3607     09AC  00E3               	movwf	??_Interrups+1
  3608     09AD  3055               	movlw	85
  3609     09AE  00E2               	movwf	??_Interrups
  3610     09AF                     u133_27:
  3611     09AF  0BE2               	decfsz	??_Interrups,f
  3612     09B0  29AF               	goto	u133_27
  3613     09B1  0BE3               	decfsz	??_Interrups+1,f
  3614     09B2  29AF               	goto	u133_27
  3615     09B3  0000               	nop
  3616     09B4                     i1l2613:
  3617                           
  3618                           ;Digitizer24bitsV1.c: 84:                     SumData_TC = 0;
  3619     09B4  3000               	movlw	0
  3620     09B5  1283               	bcf	3,5	;RP0=0, select bank0
  3621     09B6  1303               	bcf	3,6	;RP1=0, select bank0
  3622     09B7  00BF               	movwf	_SumData_TC+3
  3623     09B8  3000               	movlw	0
  3624     09B9  00BE               	movwf	_SumData_TC+2
  3625     09BA  3000               	movlw	0
  3626     09BB  00BD               	movwf	_SumData_TC+1
  3627     09BC  3000               	movlw	0
  3628     09BD  00BC               	movwf	_SumData_TC
  3629     09BE                     i1l2615:
  3630                           
  3631                           ;Digitizer24bitsV1.c: 85:                     ReadAD24(0,0x00);
  3632     09BE  01D5               	clrf	ReadAD24@cmd_convert
  3633     09BF  3000               	movlw	0
  3634     09C0  160A  118A  23DE  120A  158A  	fcall	_ReadAD24
  3635     09C5                     i1l2617:
  3636                           
  3637                           ;Digitizer24bitsV1.c: 86:                     for(conta=0; conta<5; conta++){
  3638     09C5  1283               	bcf	3,5	;RP0=0, select bank0
  3639     09C6  1303               	bcf	3,6	;RP1=0, select bank0
  3640     09C7  01EB               	clrf	Interrups@conta
  3641     09C8                     i1l2619:
  3642     09C8  3005               	movlw	5
  3643     09C9  026B               	subwf	Interrups@conta,w
  3644     09CA  1C03               	skipc
  3645     09CB  29CD               	goto	u101_21
  3646     09CC  29CE               	goto	u101_20
  3647     09CD                     u101_21:
  3648     09CD  29CF               	goto	i1l2623
  3649     09CE                     u101_20:
  3650     09CE  2A08               	goto	i1l2631
  3651     09CF                     i1l2623:
  3652                           
  3653                           ;Digitizer24bitsV1.c: 87:                         Data_TC = ReadAD24(1,0x00);
  3654     09CF  01D5               	clrf	ReadAD24@cmd_convert
  3655     09D0  3001               	movlw	1
  3656     09D1  160A  118A  23DE  120A  158A  	fcall	_ReadAD24
  3657     09D6  1283               	bcf	3,5	;RP0=0, select bank0
  3658     09D7  1303               	bcf	3,6	;RP1=0, select bank0
  3659     09D8  0858               	movf	?_ReadAD24+3,w
  3660     09D9  00AB               	movwf	_Data_TC+3
  3661     09DA  0857               	movf	?_ReadAD24+2,w
  3662     09DB  00AA               	movwf	_Data_TC+2
  3663     09DC  0856               	movf	?_ReadAD24+1,w
  3664     09DD  00A9               	movwf	_Data_TC+1
  3665     09DE  0855               	movf	?_ReadAD24,w
  3666     09DF  00A8               	movwf	_Data_TC
  3667     09E0                     i1l2625:
  3668                           
  3669                           ;Digitizer24bitsV1.c: 88:                         SumData_TC = SumData_TC + Data_TC;
  3670     09E0  083C               	movf	_SumData_TC,w
  3671     09E1  0728               	addwf	_Data_TC,w
  3672     09E2  00E2               	movwf	??_Interrups
  3673     09E3  3000               	movlw	0
  3674     09E4  1803               	skipnc
  3675     09E5  3001               	movlw	1
  3676     09E6  073D               	addwf	_SumData_TC+1,w
  3677     09E7  01E4               	clrf	??_Interrups+2
  3678     09E8  1803               	skipnc
  3679     09E9  0AE4               	incf	??_Interrups+2,f
  3680     09EA  0729               	addwf	_Data_TC+1,w
  3681     09EB  00E3               	movwf	??_Interrups+1
  3682     09EC  1803               	skipnc
  3683     09ED  0AE4               	incf	??_Interrups+2,f
  3684     09EE  083E               	movf	_SumData_TC+2,w
  3685     09EF  0764               	addwf	??_Interrups+2,w
  3686     09F0  01E5               	clrf	??_Interrups+3
  3687     09F1  1803               	skipnc
  3688     09F2  0AE5               	incf	??_Interrups+3,f
  3689     09F3  072A               	addwf	_Data_TC+2,w
  3690     09F4  00E4               	movwf	??_Interrups+2
  3691     09F5  1803               	skipnc
  3692     09F6  0AE5               	incf	??_Interrups+3,f
  3693     09F7  083F               	movf	_SumData_TC+3,w
  3694     09F8  0765               	addwf	??_Interrups+3,w
  3695     09F9  072B               	addwf	_Data_TC+3,w
  3696     09FA  00E5               	movwf	??_Interrups+3
  3697     09FB  0865               	movf	??_Interrups+3,w
  3698     09FC  00BF               	movwf	_SumData_TC+3
  3699     09FD  0864               	movf	??_Interrups+2,w
  3700     09FE  00BE               	movwf	_SumData_TC+2
  3701     09FF  0863               	movf	??_Interrups+1,w
  3702     0A00  00BD               	movwf	_SumData_TC+1
  3703     0A01  0862               	movf	??_Interrups,w
  3704     0A02  00BC               	movwf	_SumData_TC
  3705     0A03                     i1l2627:
  3706                           
  3707                           ;Digitizer24bitsV1.c: 89:                     }
  3708     0A03  3001               	movlw	1
  3709     0A04  00FF               	movwf	btemp+1
  3710     0A05  087F               	movf	btemp+1,w
  3711     0A06  07EB               	addwf	Interrups@conta,f
  3712     0A07  29C8               	goto	i1l2619
  3713     0A08                     i1l2631:
  3714                           
  3715                           ;Digitizer24bitsV1.c: 91:                     CleanHolding();
  3716     0A08  160A  118A  212B  120A  158A  	fcall	_CleanHolding
  3717     0A0D                     i1l2633:
  3718                           
  3719                           ;Digitizer24bitsV1.c: 93:                     PORTB = 0x04;
  3720     0A0D  3004               	movlw	4
  3721     0A0E  1283               	bcf	3,5	;RP0=0, select bank0
  3722     0A0F  1303               	bcf	3,6	;RP1=0, select bank0
  3723     0A10  0086               	movwf	6	;volatile
  3724     0A11                     i1l2635:
  3725                           
  3726                           ;Digitizer24bitsV1.c: 94:                     _delay((unsigned long)((7)*(9830400UL/4000
      +                          .0)));
  3727     0A11  3017               	movlw	23
  3728     0A12  1283               	bcf	3,5	;RP0=0, select bank0
  3729     0A13  1303               	bcf	3,6	;RP1=0, select bank0
  3730     0A14  00E3               	movwf	??_Interrups+1
  3731     0A15  3055               	movlw	85
  3732     0A16  00E2               	movwf	??_Interrups
  3733     0A17                     u134_27:
  3734     0A17  0BE2               	decfsz	??_Interrups,f
  3735     0A18  2A17               	goto	u134_27
  3736     0A19  0BE3               	decfsz	??_Interrups+1,f
  3737     0A1A  2A17               	goto	u134_27
  3738     0A1B  0000               	nop
  3739     0A1C                     i1l2637:
  3740                           
  3741                           ;Digitizer24bitsV1.c: 95:                     SumData_TS = 0;
  3742     0A1C  3000               	movlw	0
  3743     0A1D  1283               	bcf	3,5	;RP0=0, select bank0
  3744     0A1E  1303               	bcf	3,6	;RP1=0, select bank0
  3745     0A1F  00BB               	movwf	_SumData_TS+3
  3746     0A20  3000               	movlw	0
  3747     0A21  00BA               	movwf	_SumData_TS+2
  3748     0A22  3000               	movlw	0
  3749     0A23  00B9               	movwf	_SumData_TS+1
  3750     0A24  3000               	movlw	0
  3751     0A25  00B8               	movwf	_SumData_TS
  3752     0A26                     i1l2639:
  3753                           
  3754                           ;Digitizer24bitsV1.c: 96:                     ReadAD24(0,0x00);
  3755     0A26  01D5               	clrf	ReadAD24@cmd_convert
  3756     0A27  3000               	movlw	0
  3757     0A28  160A  118A  23DE  120A  158A  	fcall	_ReadAD24
  3758     0A2D                     i1l2641:
  3759                           
  3760                           ;Digitizer24bitsV1.c: 97:                     for(conta=0; conta<5; conta++){
  3761     0A2D  1283               	bcf	3,5	;RP0=0, select bank0
  3762     0A2E  1303               	bcf	3,6	;RP1=0, select bank0
  3763     0A2F  01EB               	clrf	Interrups@conta
  3764     0A30                     i1l2643:
  3765     0A30  3005               	movlw	5
  3766     0A31  026B               	subwf	Interrups@conta,w
  3767     0A32  1C03               	skipc
  3768     0A33  2A35               	goto	u102_21
  3769     0A34  2A36               	goto	u102_20
  3770     0A35                     u102_21:
  3771     0A35  2A39               	goto	i1l2647
  3772     0A36                     u102_20:
  3773     0A36  120A  158A  280C   	goto	i1l2655
  3774     0A39                     i1l2647:
  3775                           
  3776                           ;Digitizer24bitsV1.c: 98:                         Data_TS = ReadAD24(1,0x00);
  3777     0A39  01D5               	clrf	ReadAD24@cmd_convert
  3778     0A3A  3001               	movlw	1
  3779     0A3B  160A  118A  23DE  120A  158A  	fcall	_ReadAD24
  3780     0A40  1283               	bcf	3,5	;RP0=0, select bank0
  3781     0A41  1303               	bcf	3,6	;RP1=0, select bank0
  3782     0A42  0858               	movf	?_ReadAD24+3,w
  3783     0A43  00A7               	movwf	_Data_TS+3
  3784     0A44  0857               	movf	?_ReadAD24+2,w
  3785     0A45  00A6               	movwf	_Data_TS+2
  3786     0A46  0856               	movf	?_ReadAD24+1,w
  3787     0A47  00A5               	movwf	_Data_TS+1
  3788     0A48  0855               	movf	?_ReadAD24,w
  3789     0A49  00A4               	movwf	_Data_TS
  3790     0A4A                     i1l2649:
  3791                           
  3792                           ;Digitizer24bitsV1.c: 99:                         SumData_TS = SumData_TS + Data_TS;
  3793     0A4A  0838               	movf	_SumData_TS,w
  3794     0A4B  0724               	addwf	_Data_TS,w
  3795     0A4C  00E2               	movwf	??_Interrups
  3796     0A4D  3000               	movlw	0
  3797     0A4E  1803               	skipnc
  3798     0A4F  3001               	movlw	1
  3799     0A50  0739               	addwf	_SumData_TS+1,w
  3800     0A51  01E4               	clrf	??_Interrups+2
  3801     0A52  1803               	skipnc
  3802     0A53  0AE4               	incf	??_Interrups+2,f
  3803     0A54  0725               	addwf	_Data_TS+1,w
  3804     0A55  00E3               	movwf	??_Interrups+1
  3805     0A56  1803               	skipnc
  3806     0A57  0AE4               	incf	??_Interrups+2,f
  3807     0A58  083A               	movf	_SumData_TS+2,w
  3808     0A59  0764               	addwf	??_Interrups+2,w
  3809     0A5A  01E5               	clrf	??_Interrups+3
  3810     0A5B  1803               	skipnc
  3811     0A5C  0AE5               	incf	??_Interrups+3,f
  3812     0A5D  0726               	addwf	_Data_TS+2,w
  3813     0A5E  00E4               	movwf	??_Interrups+2
  3814     0A5F  1803               	skipnc
  3815     0A60  0AE5               	incf	??_Interrups+3,f
  3816     0A61  083B               	movf	_SumData_TS+3,w
  3817     0A62  0765               	addwf	??_Interrups+3,w
  3818     0A63  0727               	addwf	_Data_TS+3,w
  3819     0A64  00E5               	movwf	??_Interrups+3
  3820     0A65  0865               	movf	??_Interrups+3,w
  3821     0A66  00BB               	movwf	_SumData_TS+3
  3822     0A67  0864               	movf	??_Interrups+2,w
  3823     0A68  00BA               	movwf	_SumData_TS+2
  3824     0A69  0863               	movf	??_Interrups+1,w
  3825     0A6A  00B9               	movwf	_SumData_TS+1
  3826     0A6B  0862               	movf	??_Interrups,w
  3827     0A6C  00B8               	movwf	_SumData_TS
  3828     0A6D                     i1l2651:
  3829                           
  3830                           ;Digitizer24bitsV1.c: 100:                     }
  3831     0A6D  3001               	movlw	1
  3832     0A6E  00FF               	movwf	btemp+1
  3833     0A6F  087F               	movf	btemp+1,w
  3834     0A70  07EB               	addwf	Interrups@conta,f
  3835     0A71  2A30               	goto	i1l2643
  3836                           
  3837                           	psect	text7_split_2
  3838     080C                     i1l2655:
  3839                           
  3840                           ;Digitizer24bitsV1.c: 102:                     CleanHolding();
  3841     080C  160A  118A  212B  120A  158A  	fcall	_CleanHolding
  3842     0811                     i1l2657:
  3843                           
  3844                           ;Digitizer24bitsV1.c: 104:                     PORTB = 0x34;
  3845     0811  3034               	movlw	52
  3846     0812  1283               	bcf	3,5	;RP0=0, select bank0
  3847     0813  1303               	bcf	3,6	;RP1=0, select bank0
  3848     0814  0086               	movwf	6	;volatile
  3849     0815                     i1l2659:
  3850                           
  3851                           ;Digitizer24bitsV1.c: 105:                     _delay((unsigned long)((7)*(9830400UL/400
      +                          0.0)));
  3852     0815  3017               	movlw	23
  3853     0816  1283               	bcf	3,5	;RP0=0, select bank0
  3854     0817  1303               	bcf	3,6	;RP1=0, select bank0
  3855     0818  00E3               	movwf	??_Interrups+1
  3856     0819  3055               	movlw	85
  3857     081A  00E2               	movwf	??_Interrups
  3858     081B                     u135_27:
  3859     081B  0BE2               	decfsz	??_Interrups,f
  3860     081C  281B               	goto	u135_27
  3861     081D  0BE3               	decfsz	??_Interrups+1,f
  3862     081E  281B               	goto	u135_27
  3863     081F  0000               	nop
  3864     0820                     i1l2661:
  3865                           
  3866                           ;Digitizer24bitsV1.c: 106:                     SumData_AUX0 = 0;
  3867     0820  3000               	movlw	0
  3868     0821  1283               	bcf	3,5	;RP0=0, select bank0
  3869     0822  1303               	bcf	3,6	;RP1=0, select bank0
  3870     0823  00A3               	movwf	_SumData_AUX0+3
  3871     0824  3000               	movlw	0
  3872     0825  00A2               	movwf	_SumData_AUX0+2
  3873     0826  3000               	movlw	0
  3874     0827  00A1               	movwf	_SumData_AUX0+1
  3875     0828  3000               	movlw	0
  3876     0829  00A0               	movwf	_SumData_AUX0
  3877     082A                     i1l2663:
  3878                           
  3879                           ;Digitizer24bitsV1.c: 107:                     ReadAD24(0,0x00);
  3880     082A  01D5               	clrf	ReadAD24@cmd_convert
  3881     082B  3000               	movlw	0
  3882     082C  160A  118A  23DE  120A  158A  	fcall	_ReadAD24
  3883     0831                     i1l2665:
  3884                           
  3885                           ;Digitizer24bitsV1.c: 108:                     for(conta=0; conta<5; conta++){
  3886     0831  1283               	bcf	3,5	;RP0=0, select bank0
  3887     0832  1303               	bcf	3,6	;RP1=0, select bank0
  3888     0833  01EB               	clrf	Interrups@conta
  3889     0834                     i1l2667:
  3890     0834  3005               	movlw	5
  3891     0835  026B               	subwf	Interrups@conta,w
  3892     0836  1C03               	skipc
  3893     0837  2839               	goto	u103_21
  3894     0838  283A               	goto	u103_20
  3895     0839                     u103_21:
  3896     0839  283B               	goto	i1l2671
  3897     083A                     u103_20:
  3898     083A  2894               	goto	i1l2679
  3899     083B                     i1l2671:
  3900                           
  3901                           ;Digitizer24bitsV1.c: 109:                         Data_AUX0 = ReadAD24(1,0x00);
  3902     083B  01D5               	clrf	ReadAD24@cmd_convert
  3903     083C  3001               	movlw	1
  3904     083D  160A  118A  23DE  120A  158A  	fcall	_ReadAD24
  3905     0842  1283               	bcf	3,5	;RP0=0, select bank0
  3906     0843  1303               	bcf	3,6	;RP1=0, select bank0
  3907     0844  0858               	movf	?_ReadAD24+3,w
  3908     0845  1683               	bsf	3,5	;RP0=1, select bank1
  3909     0846  1303               	bcf	3,6	;RP1=0, select bank1
  3910     0847  00AB               	movwf	(_Data_AUX0+3)^(0+128)
  3911     0848  1283               	bcf	3,5	;RP0=0, select bank0
  3912     0849  1303               	bcf	3,6	;RP1=0, select bank0
  3913     084A  0857               	movf	?_ReadAD24+2,w
  3914     084B  1683               	bsf	3,5	;RP0=1, select bank1
  3915     084C  1303               	bcf	3,6	;RP1=0, select bank1
  3916     084D  00AA               	movwf	(_Data_AUX0+2)^(0+128)
  3917     084E  1283               	bcf	3,5	;RP0=0, select bank0
  3918     084F  1303               	bcf	3,6	;RP1=0, select bank0
  3919     0850  0856               	movf	?_ReadAD24+1,w
  3920     0851  1683               	bsf	3,5	;RP0=1, select bank1
  3921     0852  1303               	bcf	3,6	;RP1=0, select bank1
  3922     0853  00A9               	movwf	(_Data_AUX0+1)^(0+128)
  3923     0854  1283               	bcf	3,5	;RP0=0, select bank0
  3924     0855  1303               	bcf	3,6	;RP1=0, select bank0
  3925     0856  0855               	movf	?_ReadAD24,w
  3926     0857  1683               	bsf	3,5	;RP0=1, select bank1
  3927     0858  1303               	bcf	3,6	;RP1=0, select bank1
  3928     0859  00A8               	movwf	_Data_AUX0^(0+128)
  3929     085A                     i1l2673:
  3930                           
  3931                           ;Digitizer24bitsV1.c: 110:                         SumData_AUX0 = SumData_AUX0 + Data_AU
      +                          X0;
  3932     085A  1283               	bcf	3,5	;RP0=0, select bank0
  3933     085B  1303               	bcf	3,6	;RP1=0, select bank0
  3934     085C  0820               	movf	_SumData_AUX0,w
  3935     085D  1683               	bsf	3,5	;RP0=1, select bank1
  3936     085E  1303               	bcf	3,6	;RP1=0, select bank1
  3937     085F  0728               	addwf	_Data_AUX0^(0+128),w
  3938     0860  1283               	bcf	3,5	;RP0=0, select bank0
  3939     0861  1303               	bcf	3,6	;RP1=0, select bank0
  3940     0862  00E2               	movwf	??_Interrups
  3941     0863  3000               	movlw	0
  3942     0864  1803               	skipnc
  3943     0865  3001               	movlw	1
  3944     0866  0721               	addwf	_SumData_AUX0+1,w
  3945     0867  01E4               	clrf	??_Interrups+2
  3946     0868  1803               	skipnc
  3947     0869  0AE4               	incf	??_Interrups+2,f
  3948     086A  1683               	bsf	3,5	;RP0=1, select bank1
  3949     086B  1303               	bcf	3,6	;RP1=0, select bank1
  3950     086C  0729               	addwf	(_Data_AUX0+1)^(0+128),w
  3951     086D  1283               	bcf	3,5	;RP0=0, select bank0
  3952     086E  1303               	bcf	3,6	;RP1=0, select bank0
  3953     086F  00E3               	movwf	??_Interrups+1
  3954     0870  1803               	skipnc
  3955     0871  0AE4               	incf	??_Interrups+2,f
  3956     0872  0822               	movf	_SumData_AUX0+2,w
  3957     0873  0764               	addwf	??_Interrups+2,w
  3958     0874  01E5               	clrf	??_Interrups+3
  3959     0875  1803               	skipnc
  3960     0876  0AE5               	incf	??_Interrups+3,f
  3961     0877  1683               	bsf	3,5	;RP0=1, select bank1
  3962     0878  1303               	bcf	3,6	;RP1=0, select bank1
  3963     0879  072A               	addwf	(_Data_AUX0+2)^(0+128),w
  3964     087A  1283               	bcf	3,5	;RP0=0, select bank0
  3965     087B  1303               	bcf	3,6	;RP1=0, select bank0
  3966     087C  00E4               	movwf	??_Interrups+2
  3967     087D  1803               	skipnc
  3968     087E  0AE5               	incf	??_Interrups+3,f
  3969     087F  0823               	movf	_SumData_AUX0+3,w
  3970     0880  0765               	addwf	??_Interrups+3,w
  3971     0881  1683               	bsf	3,5	;RP0=1, select bank1
  3972     0882  1303               	bcf	3,6	;RP1=0, select bank1
  3973     0883  072B               	addwf	(_Data_AUX0+3)^(0+128),w
  3974     0884  1283               	bcf	3,5	;RP0=0, select bank0
  3975     0885  1303               	bcf	3,6	;RP1=0, select bank0
  3976     0886  00E5               	movwf	??_Interrups+3
  3977     0887  0865               	movf	??_Interrups+3,w
  3978     0888  00A3               	movwf	_SumData_AUX0+3
  3979     0889  0864               	movf	??_Interrups+2,w
  3980     088A  00A2               	movwf	_SumData_AUX0+2
  3981     088B  0863               	movf	??_Interrups+1,w
  3982     088C  00A1               	movwf	_SumData_AUX0+1
  3983     088D  0862               	movf	??_Interrups,w
  3984     088E  00A0               	movwf	_SumData_AUX0
  3985     088F                     i1l2675:
  3986                           
  3987                           ;Digitizer24bitsV1.c: 111:                     }
  3988     088F  3001               	movlw	1
  3989     0890  00FF               	movwf	btemp+1
  3990     0891  087F               	movf	btemp+1,w
  3991     0892  07EB               	addwf	Interrups@conta,f
  3992     0893  2834               	goto	i1l2667
  3993     0894                     i1l2679:
  3994                           
  3995                           ;Digitizer24bitsV1.c: 113:                      CleanHolding();
  3996     0894  160A  118A  212B  120A  158A  	fcall	_CleanHolding
  3997     0899                     i1l2681:
  3998                           
  3999                           ;Digitizer24bitsV1.c: 115:                     PORTB = 0x14;
  4000     0899  3014               	movlw	20
  4001     089A  1283               	bcf	3,5	;RP0=0, select bank0
  4002     089B  1303               	bcf	3,6	;RP1=0, select bank0
  4003     089C  0086               	movwf	6	;volatile
  4004     089D                     i1l2683:
  4005                           
  4006                           ;Digitizer24bitsV1.c: 116:                     _delay((unsigned long)((7)*(9830400UL/400
      +                          0.0)));
  4007     089D  3017               	movlw	23
  4008     089E  1283               	bcf	3,5	;RP0=0, select bank0
  4009     089F  1303               	bcf	3,6	;RP1=0, select bank0
  4010     08A0  00E3               	movwf	??_Interrups+1
  4011     08A1  3055               	movlw	85
  4012     08A2  00E2               	movwf	??_Interrups
  4013     08A3                     u136_27:
  4014     08A3  0BE2               	decfsz	??_Interrups,f
  4015     08A4  28A3               	goto	u136_27
  4016     08A5  0BE3               	decfsz	??_Interrups+1,f
  4017     08A6  28A3               	goto	u136_27
  4018     08A7  0000               	nop
  4019     08A8                     i1l2685:
  4020                           
  4021                           ;Digitizer24bitsV1.c: 117:                     SumData_AUX1 = 0;
  4022     08A8  3000               	movlw	0
  4023     08A9  1683               	bsf	3,5	;RP0=1, select bank1
  4024     08AA  1303               	bcf	3,6	;RP1=0, select bank1
  4025     08AB  00B3               	movwf	(_SumData_AUX1+3)^(0+128)
  4026     08AC  3000               	movlw	0
  4027     08AD  00B2               	movwf	(_SumData_AUX1+2)^(0+128)
  4028     08AE  3000               	movlw	0
  4029     08AF  00B1               	movwf	(_SumData_AUX1+1)^(0+128)
  4030     08B0  3000               	movlw	0
  4031     08B1  00B0               	movwf	_SumData_AUX1^(0+128)
  4032     08B2                     i1l2687:
  4033                           
  4034                           ;Digitizer24bitsV1.c: 118:                     ReadAD24(0,0x00);
  4035     08B2  1283               	bcf	3,5	;RP0=0, select bank0
  4036     08B3  1303               	bcf	3,6	;RP1=0, select bank0
  4037     08B4  01D5               	clrf	ReadAD24@cmd_convert
  4038     08B5  3000               	movlw	0
  4039     08B6  160A  118A  23DE  120A  158A  	fcall	_ReadAD24
  4040     08BB                     i1l2689:
  4041                           
  4042                           ;Digitizer24bitsV1.c: 119:                     for(conta=0; conta<5; conta++){
  4043     08BB  1283               	bcf	3,5	;RP0=0, select bank0
  4044     08BC  1303               	bcf	3,6	;RP1=0, select bank0
  4045     08BD  01EB               	clrf	Interrups@conta
  4046     08BE                     i1l2691:
  4047     08BE  3005               	movlw	5
  4048     08BF  026B               	subwf	Interrups@conta,w
  4049     08C0  1C03               	skipc
  4050     08C1  28C3               	goto	u104_21
  4051     08C2  28C4               	goto	u104_20
  4052     08C3                     u104_21:
  4053     08C3  28C7               	goto	i1l2695
  4054     08C4                     u104_20:
  4055     08C4  120A  158A  2A72   	goto	i1l2703
  4056     08C7                     i1l2695:
  4057                           
  4058                           ;Digitizer24bitsV1.c: 120:                         Data_AUX1 = ReadAD24(1,0x00);
  4059     08C7  01D5               	clrf	ReadAD24@cmd_convert
  4060     08C8  3001               	movlw	1
  4061     08C9  160A  118A  23DE  120A  158A  	fcall	_ReadAD24
  4062     08CE  1283               	bcf	3,5	;RP0=0, select bank0
  4063     08CF  1303               	bcf	3,6	;RP1=0, select bank0
  4064     08D0  0858               	movf	?_ReadAD24+3,w
  4065     08D1  1683               	bsf	3,5	;RP0=1, select bank1
  4066     08D2  1303               	bcf	3,6	;RP1=0, select bank1
  4067     08D3  00A7               	movwf	(_Data_AUX1+3)^(0+128)
  4068     08D4  1283               	bcf	3,5	;RP0=0, select bank0
  4069     08D5  1303               	bcf	3,6	;RP1=0, select bank0
  4070     08D6  0857               	movf	?_ReadAD24+2,w
  4071     08D7  1683               	bsf	3,5	;RP0=1, select bank1
  4072     08D8  1303               	bcf	3,6	;RP1=0, select bank1
  4073     08D9  00A6               	movwf	(_Data_AUX1+2)^(0+128)
  4074     08DA  1283               	bcf	3,5	;RP0=0, select bank0
  4075     08DB  1303               	bcf	3,6	;RP1=0, select bank0
  4076     08DC  0856               	movf	?_ReadAD24+1,w
  4077     08DD  1683               	bsf	3,5	;RP0=1, select bank1
  4078     08DE  1303               	bcf	3,6	;RP1=0, select bank1
  4079     08DF  00A5               	movwf	(_Data_AUX1+1)^(0+128)
  4080     08E0  1283               	bcf	3,5	;RP0=0, select bank0
  4081     08E1  1303               	bcf	3,6	;RP1=0, select bank0
  4082     08E2  0855               	movf	?_ReadAD24,w
  4083     08E3  1683               	bsf	3,5	;RP0=1, select bank1
  4084     08E4  1303               	bcf	3,6	;RP1=0, select bank1
  4085     08E5  00A4               	movwf	_Data_AUX1^(0+128)
  4086     08E6                     i1l2697:
  4087                           
  4088                           ;Digitizer24bitsV1.c: 121:                         SumData_AUX1 = SumData_AUX1 + Data_AU
      +                          X1;
  4089     08E6  0830               	movf	_SumData_AUX1^(0+128),w
  4090     08E7  0724               	addwf	_Data_AUX1^(0+128),w
  4091     08E8  1283               	bcf	3,5	;RP0=0, select bank0
  4092     08E9  1303               	bcf	3,6	;RP1=0, select bank0
  4093     08EA  00E2               	movwf	??_Interrups
  4094     08EB  3000               	movlw	0
  4095     08EC  1803               	skipnc
  4096     08ED  3001               	movlw	1
  4097     08EE  1683               	bsf	3,5	;RP0=1, select bank1
  4098     08EF  1303               	bcf	3,6	;RP1=0, select bank1
  4099     08F0  0731               	addwf	(_SumData_AUX1+1)^(0+128),w
  4100     08F1  1283               	bcf	3,5	;RP0=0, select bank0
  4101     08F2  1303               	bcf	3,6	;RP1=0, select bank0
  4102     08F3  01E4               	clrf	??_Interrups+2
  4103     08F4  1803               	skipnc
  4104     08F5  0AE4               	incf	??_Interrups+2,f
  4105     08F6  1683               	bsf	3,5	;RP0=1, select bank1
  4106     08F7  1303               	bcf	3,6	;RP1=0, select bank1
  4107     08F8  0725               	addwf	(_Data_AUX1+1)^(0+128),w
  4108     08F9  1283               	bcf	3,5	;RP0=0, select bank0
  4109     08FA  1303               	bcf	3,6	;RP1=0, select bank0
  4110     08FB  00E3               	movwf	??_Interrups+1
  4111     08FC  1803               	skipnc
  4112     08FD  0AE4               	incf	??_Interrups+2,f
  4113     08FE  1683               	bsf	3,5	;RP0=1, select bank1
  4114     08FF  1303               	bcf	3,6	;RP1=0, select bank1
  4115     0900  0832               	movf	(_SumData_AUX1+2)^(0+128),w
  4116     0901  1283               	bcf	3,5	;RP0=0, select bank0
  4117     0902  1303               	bcf	3,6	;RP1=0, select bank0
  4118     0903  0764               	addwf	??_Interrups+2,w
  4119     0904  01E5               	clrf	??_Interrups+3
  4120     0905  1803               	skipnc
  4121     0906  0AE5               	incf	??_Interrups+3,f
  4122     0907  1683               	bsf	3,5	;RP0=1, select bank1
  4123     0908  1303               	bcf	3,6	;RP1=0, select bank1
  4124     0909  0726               	addwf	(_Data_AUX1+2)^(0+128),w
  4125     090A  1283               	bcf	3,5	;RP0=0, select bank0
  4126     090B  1303               	bcf	3,6	;RP1=0, select bank0
  4127     090C  00E4               	movwf	??_Interrups+2
  4128     090D  1803               	skipnc
  4129     090E  0AE5               	incf	??_Interrups+3,f
  4130     090F  1683               	bsf	3,5	;RP0=1, select bank1
  4131     0910  1303               	bcf	3,6	;RP1=0, select bank1
  4132     0911  0833               	movf	(_SumData_AUX1+3)^(0+128),w
  4133     0912  1283               	bcf	3,5	;RP0=0, select bank0
  4134     0913  1303               	bcf	3,6	;RP1=0, select bank0
  4135     0914  0765               	addwf	??_Interrups+3,w
  4136     0915  1683               	bsf	3,5	;RP0=1, select bank1
  4137     0916  1303               	bcf	3,6	;RP1=0, select bank1
  4138     0917  0727               	addwf	(_Data_AUX1+3)^(0+128),w
  4139     0918  1283               	bcf	3,5	;RP0=0, select bank0
  4140     0919  1303               	bcf	3,6	;RP1=0, select bank0
  4141     091A  00E5               	movwf	??_Interrups+3
  4142     091B  0865               	movf	??_Interrups+3,w
  4143     091C  1683               	bsf	3,5	;RP0=1, select bank1
  4144     091D  1303               	bcf	3,6	;RP1=0, select bank1
  4145     091E  00B3               	movwf	(_SumData_AUX1+3)^(0+128)
  4146     091F  1283               	bcf	3,5	;RP0=0, select bank0
  4147     0920  1303               	bcf	3,6	;RP1=0, select bank0
  4148     0921  0864               	movf	??_Interrups+2,w
  4149     0922  1683               	bsf	3,5	;RP0=1, select bank1
  4150     0923  1303               	bcf	3,6	;RP1=0, select bank1
  4151     0924  00B2               	movwf	(_SumData_AUX1+2)^(0+128)
  4152     0925  1283               	bcf	3,5	;RP0=0, select bank0
  4153     0926  1303               	bcf	3,6	;RP1=0, select bank0
  4154     0927  0863               	movf	??_Interrups+1,w
  4155     0928  1683               	bsf	3,5	;RP0=1, select bank1
  4156     0929  1303               	bcf	3,6	;RP1=0, select bank1
  4157     092A  00B1               	movwf	(_SumData_AUX1+1)^(0+128)
  4158     092B  1283               	bcf	3,5	;RP0=0, select bank0
  4159     092C  1303               	bcf	3,6	;RP1=0, select bank0
  4160     092D  0862               	movf	??_Interrups,w
  4161     092E  1683               	bsf	3,5	;RP0=1, select bank1
  4162     092F  1303               	bcf	3,6	;RP1=0, select bank1
  4163     0930  00B0               	movwf	_SumData_AUX1^(0+128)
  4164     0931                     i1l2699:
  4165                           
  4166                           ;Digitizer24bitsV1.c: 122:                     }
  4167     0931  3001               	movlw	1
  4168     0932  00FF               	movwf	btemp+1
  4169     0933  087F               	movf	btemp+1,w
  4170     0934  1283               	bcf	3,5	;RP0=0, select bank0
  4171     0935  1303               	bcf	3,6	;RP1=0, select bank0
  4172     0936  07EB               	addwf	Interrups@conta,f
  4173     0937  28BE               	goto	i1l2691
  4174                           
  4175                           	psect	text7_split_3
  4176     0A72                     i1l2703:
  4177                           
  4178                           ;Digitizer24bitsV1.c: 124:                      CleanHolding();
  4179     0A72  160A  118A  212B  120A  158A  	fcall	_CleanHolding
  4180     0A77                     i1l2705:
  4181                           
  4182                           ;Digitizer24bitsV1.c: 126:                     PORTB = 0x24;
  4183     0A77  3024               	movlw	36
  4184     0A78  1283               	bcf	3,5	;RP0=0, select bank0
  4185     0A79  1303               	bcf	3,6	;RP1=0, select bank0
  4186     0A7A  0086               	movwf	6	;volatile
  4187     0A7B                     i1l2707:
  4188                           
  4189                           ;Digitizer24bitsV1.c: 127:                     _delay((unsigned long)((7)*(9830400UL/400
      +                          0.0)));
  4190     0A7B  3017               	movlw	23
  4191     0A7C  1283               	bcf	3,5	;RP0=0, select bank0
  4192     0A7D  1303               	bcf	3,6	;RP1=0, select bank0
  4193     0A7E  00E3               	movwf	??_Interrups+1
  4194     0A7F  3055               	movlw	85
  4195     0A80  00E2               	movwf	??_Interrups
  4196     0A81                     u137_27:
  4197     0A81  0BE2               	decfsz	??_Interrups,f
  4198     0A82  2A81               	goto	u137_27
  4199     0A83  0BE3               	decfsz	??_Interrups+1,f
  4200     0A84  2A81               	goto	u137_27
  4201     0A85  0000               	nop
  4202     0A86                     i1l2709:
  4203                           
  4204                           ;Digitizer24bitsV1.c: 128:                     SumData_AUX2 = 0;
  4205     0A86  3000               	movlw	0
  4206     0A87  1683               	bsf	3,5	;RP0=1, select bank1
  4207     0A88  1303               	bcf	3,6	;RP1=0, select bank1
  4208     0A89  00AF               	movwf	(_SumData_AUX2+3)^(0+128)
  4209     0A8A  3000               	movlw	0
  4210     0A8B  00AE               	movwf	(_SumData_AUX2+2)^(0+128)
  4211     0A8C  3000               	movlw	0
  4212     0A8D  00AD               	movwf	(_SumData_AUX2+1)^(0+128)
  4213     0A8E  3000               	movlw	0
  4214     0A8F  00AC               	movwf	_SumData_AUX2^(0+128)
  4215     0A90                     i1l2711:
  4216                           
  4217                           ;Digitizer24bitsV1.c: 129:                     ReadAD24(0,0x00);
  4218     0A90  1283               	bcf	3,5	;RP0=0, select bank0
  4219     0A91  1303               	bcf	3,6	;RP1=0, select bank0
  4220     0A92  01D5               	clrf	ReadAD24@cmd_convert
  4221     0A93  3000               	movlw	0
  4222     0A94  160A  118A  23DE  120A  158A  	fcall	_ReadAD24
  4223     0A99                     i1l2713:
  4224                           
  4225                           ;Digitizer24bitsV1.c: 130:                     for(conta=0; conta<5; conta++){
  4226     0A99  1283               	bcf	3,5	;RP0=0, select bank0
  4227     0A9A  1303               	bcf	3,6	;RP1=0, select bank0
  4228     0A9B  01EB               	clrf	Interrups@conta
  4229     0A9C                     i1l2715:
  4230     0A9C  3005               	movlw	5
  4231     0A9D  026B               	subwf	Interrups@conta,w
  4232     0A9E  1C03               	skipc
  4233     0A9F  2AA1               	goto	u105_21
  4234     0AA0  2AA2               	goto	u105_20
  4235     0AA1                     u105_21:
  4236     0AA1  2AA3               	goto	i1l2719
  4237     0AA2                     u105_20:
  4238     0AA2  2B14               	goto	i1l2727
  4239     0AA3                     i1l2719:
  4240                           
  4241                           ;Digitizer24bitsV1.c: 131:                         Data_AUX2 = ReadAD24(1,0x00);
  4242     0AA3  01D5               	clrf	ReadAD24@cmd_convert
  4243     0AA4  3001               	movlw	1
  4244     0AA5  160A  118A  23DE  120A  158A  	fcall	_ReadAD24
  4245     0AAA  1283               	bcf	3,5	;RP0=0, select bank0
  4246     0AAB  1303               	bcf	3,6	;RP1=0, select bank0
  4247     0AAC  0858               	movf	?_ReadAD24+3,w
  4248     0AAD  1683               	bsf	3,5	;RP0=1, select bank1
  4249     0AAE  1303               	bcf	3,6	;RP1=0, select bank1
  4250     0AAF  00A3               	movwf	(_Data_AUX2+3)^(0+128)
  4251     0AB0  1283               	bcf	3,5	;RP0=0, select bank0
  4252     0AB1  1303               	bcf	3,6	;RP1=0, select bank0
  4253     0AB2  0857               	movf	?_ReadAD24+2,w
  4254     0AB3  1683               	bsf	3,5	;RP0=1, select bank1
  4255     0AB4  1303               	bcf	3,6	;RP1=0, select bank1
  4256     0AB5  00A2               	movwf	(_Data_AUX2+2)^(0+128)
  4257     0AB6  1283               	bcf	3,5	;RP0=0, select bank0
  4258     0AB7  1303               	bcf	3,6	;RP1=0, select bank0
  4259     0AB8  0856               	movf	?_ReadAD24+1,w
  4260     0AB9  1683               	bsf	3,5	;RP0=1, select bank1
  4261     0ABA  1303               	bcf	3,6	;RP1=0, select bank1
  4262     0ABB  00A1               	movwf	(_Data_AUX2+1)^(0+128)
  4263     0ABC  1283               	bcf	3,5	;RP0=0, select bank0
  4264     0ABD  1303               	bcf	3,6	;RP1=0, select bank0
  4265     0ABE  0855               	movf	?_ReadAD24,w
  4266     0ABF  1683               	bsf	3,5	;RP0=1, select bank1
  4267     0AC0  1303               	bcf	3,6	;RP1=0, select bank1
  4268     0AC1  00A0               	movwf	_Data_AUX2^(0+128)
  4269     0AC2                     i1l2721:
  4270                           
  4271                           ;Digitizer24bitsV1.c: 132:                         SumData_AUX2 = SumData_AUX2 + Data_AU
      +                          X2;
  4272     0AC2  082C               	movf	_SumData_AUX2^(0+128),w
  4273     0AC3  0720               	addwf	_Data_AUX2^(0+128),w
  4274     0AC4  1283               	bcf	3,5	;RP0=0, select bank0
  4275     0AC5  1303               	bcf	3,6	;RP1=0, select bank0
  4276     0AC6  00E2               	movwf	??_Interrups
  4277     0AC7  3000               	movlw	0
  4278     0AC8  1803               	skipnc
  4279     0AC9  3001               	movlw	1
  4280     0ACA  1683               	bsf	3,5	;RP0=1, select bank1
  4281     0ACB  1303               	bcf	3,6	;RP1=0, select bank1
  4282     0ACC  072D               	addwf	(_SumData_AUX2+1)^(0+128),w
  4283     0ACD  1283               	bcf	3,5	;RP0=0, select bank0
  4284     0ACE  1303               	bcf	3,6	;RP1=0, select bank0
  4285     0ACF  01E4               	clrf	??_Interrups+2
  4286     0AD0  1803               	skipnc
  4287     0AD1  0AE4               	incf	??_Interrups+2,f
  4288     0AD2  1683               	bsf	3,5	;RP0=1, select bank1
  4289     0AD3  1303               	bcf	3,6	;RP1=0, select bank1
  4290     0AD4  0721               	addwf	(_Data_AUX2+1)^(0+128),w
  4291     0AD5  1283               	bcf	3,5	;RP0=0, select bank0
  4292     0AD6  1303               	bcf	3,6	;RP1=0, select bank0
  4293     0AD7  00E3               	movwf	??_Interrups+1
  4294     0AD8  1803               	skipnc
  4295     0AD9  0AE4               	incf	??_Interrups+2,f
  4296     0ADA  1683               	bsf	3,5	;RP0=1, select bank1
  4297     0ADB  1303               	bcf	3,6	;RP1=0, select bank1
  4298     0ADC  082E               	movf	(_SumData_AUX2+2)^(0+128),w
  4299     0ADD  1283               	bcf	3,5	;RP0=0, select bank0
  4300     0ADE  1303               	bcf	3,6	;RP1=0, select bank0
  4301     0ADF  0764               	addwf	??_Interrups+2,w
  4302     0AE0  01E5               	clrf	??_Interrups+3
  4303     0AE1  1803               	skipnc
  4304     0AE2  0AE5               	incf	??_Interrups+3,f
  4305     0AE3  1683               	bsf	3,5	;RP0=1, select bank1
  4306     0AE4  1303               	bcf	3,6	;RP1=0, select bank1
  4307     0AE5  0722               	addwf	(_Data_AUX2+2)^(0+128),w
  4308     0AE6  1283               	bcf	3,5	;RP0=0, select bank0
  4309     0AE7  1303               	bcf	3,6	;RP1=0, select bank0
  4310     0AE8  00E4               	movwf	??_Interrups+2
  4311     0AE9  1803               	skipnc
  4312     0AEA  0AE5               	incf	??_Interrups+3,f
  4313     0AEB  1683               	bsf	3,5	;RP0=1, select bank1
  4314     0AEC  1303               	bcf	3,6	;RP1=0, select bank1
  4315     0AED  082F               	movf	(_SumData_AUX2+3)^(0+128),w
  4316     0AEE  1283               	bcf	3,5	;RP0=0, select bank0
  4317     0AEF  1303               	bcf	3,6	;RP1=0, select bank0
  4318     0AF0  0765               	addwf	??_Interrups+3,w
  4319     0AF1  1683               	bsf	3,5	;RP0=1, select bank1
  4320     0AF2  1303               	bcf	3,6	;RP1=0, select bank1
  4321     0AF3  0723               	addwf	(_Data_AUX2+3)^(0+128),w
  4322     0AF4  1283               	bcf	3,5	;RP0=0, select bank0
  4323     0AF5  1303               	bcf	3,6	;RP1=0, select bank0
  4324     0AF6  00E5               	movwf	??_Interrups+3
  4325     0AF7  0865               	movf	??_Interrups+3,w
  4326     0AF8  1683               	bsf	3,5	;RP0=1, select bank1
  4327     0AF9  1303               	bcf	3,6	;RP1=0, select bank1
  4328     0AFA  00AF               	movwf	(_SumData_AUX2+3)^(0+128)
  4329     0AFB  1283               	bcf	3,5	;RP0=0, select bank0
  4330     0AFC  1303               	bcf	3,6	;RP1=0, select bank0
  4331     0AFD  0864               	movf	??_Interrups+2,w
  4332     0AFE  1683               	bsf	3,5	;RP0=1, select bank1
  4333     0AFF  1303               	bcf	3,6	;RP1=0, select bank1
  4334     0B00  00AE               	movwf	(_SumData_AUX2+2)^(0+128)
  4335     0B01  1283               	bcf	3,5	;RP0=0, select bank0
  4336     0B02  1303               	bcf	3,6	;RP1=0, select bank0
  4337     0B03  0863               	movf	??_Interrups+1,w
  4338     0B04  1683               	bsf	3,5	;RP0=1, select bank1
  4339     0B05  1303               	bcf	3,6	;RP1=0, select bank1
  4340     0B06  00AD               	movwf	(_SumData_AUX2+1)^(0+128)
  4341     0B07  1283               	bcf	3,5	;RP0=0, select bank0
  4342     0B08  1303               	bcf	3,6	;RP1=0, select bank0
  4343     0B09  0862               	movf	??_Interrups,w
  4344     0B0A  1683               	bsf	3,5	;RP0=1, select bank1
  4345     0B0B  1303               	bcf	3,6	;RP1=0, select bank1
  4346     0B0C  00AC               	movwf	_SumData_AUX2^(0+128)
  4347     0B0D                     i1l2723:
  4348                           
  4349                           ;Digitizer24bitsV1.c: 133:                     }
  4350     0B0D  3001               	movlw	1
  4351     0B0E  00FF               	movwf	btemp+1
  4352     0B0F  087F               	movf	btemp+1,w
  4353     0B10  1283               	bcf	3,5	;RP0=0, select bank0
  4354     0B11  1303               	bcf	3,6	;RP1=0, select bank0
  4355     0B12  07EB               	addwf	Interrups@conta,f
  4356     0B13  2A9C               	goto	i1l2715
  4357     0B14                     i1l2727:
  4358                           
  4359                           ;Digitizer24bitsV1.c: 136:                     Data_X = SumData_X/5;
  4360     0B14  3000               	movlw	0
  4361     0B15  00F3               	movwf	___aldiv@divisor+3
  4362     0B16  3000               	movlw	0
  4363     0B17  00F2               	movwf	___aldiv@divisor+2
  4364     0B18  3000               	movlw	0
  4365     0B19  00F1               	movwf	___aldiv@divisor+1
  4366     0B1A  3005               	movlw	5
  4367     0B1B  00F0               	movwf	___aldiv@divisor
  4368     0B1C  084B               	movf	_SumData_X+3,w
  4369     0B1D  00F7               	movwf	___aldiv@dividend+3
  4370     0B1E  084A               	movf	_SumData_X+2,w
  4371     0B1F  00F6               	movwf	___aldiv@dividend+2
  4372     0B20  0849               	movf	_SumData_X+1,w
  4373     0B21  00F5               	movwf	___aldiv@dividend+1
  4374     0B22  0848               	movf	_SumData_X,w
  4375     0B23  00F4               	movwf	___aldiv@dividend
  4376     0B24  160A  118A  2341  120A  158A  	fcall	___aldiv
  4377     0B29  0873               	movf	?___aldiv+3,w
  4378     0B2A  1283               	bcf	3,5	;RP0=0, select bank0
  4379     0B2B  1303               	bcf	3,6	;RP1=0, select bank0
  4380     0B2C  00B7               	movwf	_Data_X+3
  4381     0B2D  0872               	movf	?___aldiv+2,w
  4382     0B2E  00B6               	movwf	_Data_X+2
  4383     0B2F  0871               	movf	?___aldiv+1,w
  4384     0B30  00B5               	movwf	_Data_X+1
  4385     0B31  0870               	movf	?___aldiv,w
  4386     0B32  00B4               	movwf	_Data_X
  4387                           
  4388                           ;Digitizer24bitsV1.c: 137:                     Data_Y = SumData_Y/5;
  4389     0B33  3000               	movlw	0
  4390     0B34  00F3               	movwf	___aldiv@divisor+3
  4391     0B35  3000               	movlw	0
  4392     0B36  00F2               	movwf	___aldiv@divisor+2
  4393     0B37  3000               	movlw	0
  4394     0B38  00F1               	movwf	___aldiv@divisor+1
  4395     0B39  3005               	movlw	5
  4396     0B3A  00F0               	movwf	___aldiv@divisor
  4397     0B3B  0847               	movf	_SumData_Y+3,w
  4398     0B3C  00F7               	movwf	___aldiv@dividend+3
  4399     0B3D  0846               	movf	_SumData_Y+2,w
  4400     0B3E  00F6               	movwf	___aldiv@dividend+2
  4401     0B3F  0845               	movf	_SumData_Y+1,w
  4402     0B40  00F5               	movwf	___aldiv@dividend+1
  4403     0B41  0844               	movf	_SumData_Y,w
  4404     0B42  00F4               	movwf	___aldiv@dividend
  4405     0B43  160A  118A  2341  120A  158A  	fcall	___aldiv
  4406     0B48  0873               	movf	?___aldiv+3,w
  4407     0B49  1283               	bcf	3,5	;RP0=0, select bank0
  4408     0B4A  1303               	bcf	3,6	;RP1=0, select bank0
  4409     0B4B  00B3               	movwf	_Data_Y+3
  4410     0B4C  0872               	movf	?___aldiv+2,w
  4411     0B4D  00B2               	movwf	_Data_Y+2
  4412     0B4E  0871               	movf	?___aldiv+1,w
  4413     0B4F  00B1               	movwf	_Data_Y+1
  4414     0B50  0870               	movf	?___aldiv,w
  4415     0B51  00B0               	movwf	_Data_Y
  4416                           
  4417                           ;Digitizer24bitsV1.c: 138:                     Data_Z = SumData_Z/5;
  4418     0B52  3000               	movlw	0
  4419     0B53  00F3               	movwf	___aldiv@divisor+3
  4420     0B54  3000               	movlw	0
  4421     0B55  00F2               	movwf	___aldiv@divisor+2
  4422     0B56  3000               	movlw	0
  4423     0B57  00F1               	movwf	___aldiv@divisor+1
  4424     0B58  3005               	movlw	5
  4425     0B59  00F0               	movwf	___aldiv@divisor
  4426     0B5A  0843               	movf	_SumData_Z+3,w
  4427     0B5B  00F7               	movwf	___aldiv@dividend+3
  4428     0B5C  0842               	movf	_SumData_Z+2,w
  4429     0B5D  00F6               	movwf	___aldiv@dividend+2
  4430     0B5E  0841               	movf	_SumData_Z+1,w
  4431     0B5F  00F5               	movwf	___aldiv@dividend+1
  4432     0B60  0840               	movf	_SumData_Z,w
  4433     0B61  00F4               	movwf	___aldiv@dividend
  4434     0B62  160A  118A  2341  120A  158A  	fcall	___aldiv
  4435     0B67  0873               	movf	?___aldiv+3,w
  4436     0B68  1283               	bcf	3,5	;RP0=0, select bank0
  4437     0B69  1303               	bcf	3,6	;RP1=0, select bank0
  4438     0B6A  00AF               	movwf	_Data_Z+3
  4439     0B6B  0872               	movf	?___aldiv+2,w
  4440     0B6C  00AE               	movwf	_Data_Z+2
  4441     0B6D  0871               	movf	?___aldiv+1,w
  4442     0B6E  00AD               	movwf	_Data_Z+1
  4443     0B6F  0870               	movf	?___aldiv,w
  4444     0B70  00AC               	movwf	_Data_Z
  4445                           
  4446                           ;Digitizer24bitsV1.c: 139:                     Data_TC = SumData_TC/5;
  4447     0B71  3000               	movlw	0
  4448     0B72  00F3               	movwf	___aldiv@divisor+3
  4449     0B73  3000               	movlw	0
  4450     0B74  00F2               	movwf	___aldiv@divisor+2
  4451     0B75  3000               	movlw	0
  4452     0B76  00F1               	movwf	___aldiv@divisor+1
  4453     0B77  3005               	movlw	5
  4454     0B78  00F0               	movwf	___aldiv@divisor
  4455     0B79  083F               	movf	_SumData_TC+3,w
  4456     0B7A  00F7               	movwf	___aldiv@dividend+3
  4457     0B7B  083E               	movf	_SumData_TC+2,w
  4458     0B7C  00F6               	movwf	___aldiv@dividend+2
  4459     0B7D  083D               	movf	_SumData_TC+1,w
  4460     0B7E  00F5               	movwf	___aldiv@dividend+1
  4461     0B7F  083C               	movf	_SumData_TC,w
  4462     0B80  00F4               	movwf	___aldiv@dividend
  4463     0B81  160A  118A  2341  120A  158A  	fcall	___aldiv
  4464     0B86  0873               	movf	?___aldiv+3,w
  4465     0B87  1283               	bcf	3,5	;RP0=0, select bank0
  4466     0B88  1303               	bcf	3,6	;RP1=0, select bank0
  4467     0B89  00AB               	movwf	_Data_TC+3
  4468     0B8A  0872               	movf	?___aldiv+2,w
  4469     0B8B  00AA               	movwf	_Data_TC+2
  4470     0B8C  0871               	movf	?___aldiv+1,w
  4471     0B8D  00A9               	movwf	_Data_TC+1
  4472     0B8E  0870               	movf	?___aldiv,w
  4473     0B8F  00A8               	movwf	_Data_TC
  4474                           
  4475                           ;Digitizer24bitsV1.c: 140:                     Data_TS = SumData_TS/5;
  4476     0B90  3000               	movlw	0
  4477     0B91  00F3               	movwf	___aldiv@divisor+3
  4478     0B92  3000               	movlw	0
  4479     0B93  00F2               	movwf	___aldiv@divisor+2
  4480     0B94  3000               	movlw	0
  4481     0B95  00F1               	movwf	___aldiv@divisor+1
  4482     0B96  3005               	movlw	5
  4483     0B97  00F0               	movwf	___aldiv@divisor
  4484     0B98  083B               	movf	_SumData_TS+3,w
  4485     0B99  00F7               	movwf	___aldiv@dividend+3
  4486     0B9A  083A               	movf	_SumData_TS+2,w
  4487     0B9B  00F6               	movwf	___aldiv@dividend+2
  4488     0B9C  0839               	movf	_SumData_TS+1,w
  4489     0B9D  00F5               	movwf	___aldiv@dividend+1
  4490     0B9E  0838               	movf	_SumData_TS,w
  4491     0B9F  00F4               	movwf	___aldiv@dividend
  4492     0BA0  160A  118A  2341  120A  158A  	fcall	___aldiv
  4493     0BA5  0873               	movf	?___aldiv+3,w
  4494     0BA6  1283               	bcf	3,5	;RP0=0, select bank0
  4495     0BA7  1303               	bcf	3,6	;RP1=0, select bank0
  4496     0BA8  00A7               	movwf	_Data_TS+3
  4497     0BA9  0872               	movf	?___aldiv+2,w
  4498     0BAA  00A6               	movwf	_Data_TS+2
  4499     0BAB  0871               	movf	?___aldiv+1,w
  4500     0BAC  00A5               	movwf	_Data_TS+1
  4501     0BAD  0870               	movf	?___aldiv,w
  4502     0BAE  00A4               	movwf	_Data_TS
  4503                           
  4504                           ;Digitizer24bitsV1.c: 141:                     Data_AUX0 = SumData_AUX0/5;
  4505     0BAF  3000               	movlw	0
  4506     0BB0  00F3               	movwf	___aldiv@divisor+3
  4507     0BB1  3000               	movlw	0
  4508     0BB2  00F2               	movwf	___aldiv@divisor+2
  4509     0BB3  3000               	movlw	0
  4510     0BB4  00F1               	movwf	___aldiv@divisor+1
  4511     0BB5  3005               	movlw	5
  4512     0BB6  00F0               	movwf	___aldiv@divisor
  4513     0BB7  0823               	movf	_SumData_AUX0+3,w
  4514     0BB8  00F7               	movwf	___aldiv@dividend+3
  4515     0BB9  0822               	movf	_SumData_AUX0+2,w
  4516     0BBA  00F6               	movwf	___aldiv@dividend+2
  4517     0BBB  0821               	movf	_SumData_AUX0+1,w
  4518     0BBC  00F5               	movwf	___aldiv@dividend+1
  4519     0BBD  0820               	movf	_SumData_AUX0,w
  4520     0BBE  00F4               	movwf	___aldiv@dividend
  4521     0BBF  160A  118A  2341  120A  158A  	fcall	___aldiv
  4522     0BC4  0873               	movf	?___aldiv+3,w
  4523     0BC5  1683               	bsf	3,5	;RP0=1, select bank1
  4524     0BC6  1303               	bcf	3,6	;RP1=0, select bank1
  4525     0BC7  00AB               	movwf	(_Data_AUX0+3)^(0+128)
  4526     0BC8  0872               	movf	?___aldiv+2,w
  4527     0BC9  00AA               	movwf	(_Data_AUX0+2)^(0+128)
  4528     0BCA  0871               	movf	?___aldiv+1,w
  4529     0BCB  00A9               	movwf	(_Data_AUX0+1)^(0+128)
  4530     0BCC  0870               	movf	?___aldiv,w
  4531     0BCD  00A8               	movwf	_Data_AUX0^(0+128)
  4532                           
  4533                           ;Digitizer24bitsV1.c: 142:                     Data_AUX1 = SumData_AUX1/5;
  4534     0BCE  3000               	movlw	0
  4535     0BCF  00F3               	movwf	___aldiv@divisor+3
  4536     0BD0  3000               	movlw	0
  4537     0BD1  00F2               	movwf	___aldiv@divisor+2
  4538     0BD2  3000               	movlw	0
  4539     0BD3  00F1               	movwf	___aldiv@divisor+1
  4540     0BD4  3005               	movlw	5
  4541     0BD5  00F0               	movwf	___aldiv@divisor
  4542     0BD6  0833               	movf	(_SumData_AUX1+3)^(0+128),w
  4543     0BD7  00F7               	movwf	___aldiv@dividend+3
  4544     0BD8  0832               	movf	(_SumData_AUX1+2)^(0+128),w
  4545     0BD9  00F6               	movwf	___aldiv@dividend+2
  4546     0BDA  0831               	movf	(_SumData_AUX1+1)^(0+128),w
  4547     0BDB  00F5               	movwf	___aldiv@dividend+1
  4548     0BDC  0830               	movf	_SumData_AUX1^(0+128),w
  4549     0BDD  00F4               	movwf	___aldiv@dividend
  4550     0BDE  160A  118A  2341  120A  158A  	fcall	___aldiv
  4551     0BE3  0873               	movf	?___aldiv+3,w
  4552     0BE4  1683               	bsf	3,5	;RP0=1, select bank1
  4553     0BE5  1303               	bcf	3,6	;RP1=0, select bank1
  4554     0BE6  00A7               	movwf	(_Data_AUX1+3)^(0+128)
  4555     0BE7  0872               	movf	?___aldiv+2,w
  4556     0BE8  00A6               	movwf	(_Data_AUX1+2)^(0+128)
  4557     0BE9  0871               	movf	?___aldiv+1,w
  4558     0BEA  00A5               	movwf	(_Data_AUX1+1)^(0+128)
  4559     0BEB  0870               	movf	?___aldiv,w
  4560     0BEC  00A4               	movwf	_Data_AUX1^(0+128)
  4561                           
  4562                           ;Digitizer24bitsV1.c: 143:                     Data_AUX2 = SumData_AUX2/5;
  4563     0BED  3000               	movlw	0
  4564     0BEE  00F3               	movwf	___aldiv@divisor+3
  4565     0BEF  3000               	movlw	0
  4566     0BF0  00F2               	movwf	___aldiv@divisor+2
  4567     0BF1  3000               	movlw	0
  4568     0BF2  00F1               	movwf	___aldiv@divisor+1
  4569     0BF3  3005               	movlw	5
  4570     0BF4  00F0               	movwf	___aldiv@divisor
  4571     0BF5  082F               	movf	(_SumData_AUX2+3)^(0+128),w
  4572     0BF6  00F7               	movwf	___aldiv@dividend+3
  4573     0BF7  082E               	movf	(_SumData_AUX2+2)^(0+128),w
  4574     0BF8  00F6               	movwf	___aldiv@dividend+2
  4575     0BF9  082D               	movf	(_SumData_AUX2+1)^(0+128),w
  4576     0BFA  00F5               	movwf	___aldiv@dividend+1
  4577     0BFB  082C               	movf	_SumData_AUX2^(0+128),w
  4578     0BFC  00F4               	movwf	___aldiv@dividend
  4579     0BFD  160A  118A  2341  120A  158A  	fcall	___aldiv
  4580     0C02  0873               	movf	?___aldiv+3,w
  4581     0C03  1683               	bsf	3,5	;RP0=1, select bank1
  4582     0C04  1303               	bcf	3,6	;RP1=0, select bank1
  4583     0C05  00A3               	movwf	(_Data_AUX2+3)^(0+128)
  4584     0C06  0872               	movf	?___aldiv+2,w
  4585     0C07  00A2               	movwf	(_Data_AUX2+2)^(0+128)
  4586     0C08  0871               	movf	?___aldiv+1,w
  4587     0C09  00A1               	movwf	(_Data_AUX2+1)^(0+128)
  4588     0C0A  0870               	movf	?___aldiv,w
  4589     0C0B  00A0               	movwf	_Data_AUX2^(0+128)
  4590     0C0C                     i1l2729:
  4591                           
  4592                           ;Digitizer24bitsV1.c: 146:                     print_string("JROADQ");
  4593     0C0C  3039               	movlw	(low ((STR_3-__stringbase)| (0+32768)))& (0+255)
  4594     0C0D  00F1               	movwf	print_string@str
  4595     0C0E  3080               	movlw	128
  4596     0C0F  00F2               	movwf	print_string@str+1
  4597     0C10  160A  118A  2195  120A  158A  	fcall	_print_string
  4598     0C15                     i1l2731:
  4599                           
  4600                           ;Digitizer24bitsV1.c: 147:                     WriteByte_USART(ContaSample);
  4601     0C15  1283               	bcf	3,5	;RP0=0, select bank0
  4602     0C16  1303               	bcf	3,6	;RP1=0, select bank0
  4603     0C17  084C               	movf	_ContaSample,w
  4604     0C18  160A  118A  20EF  120A  158A  	fcall	_WriteByte_USART
  4605     0C1D                     i1l2733:
  4606                           
  4607                           ;Digitizer24bitsV1.c: 148:                     print_value(Data_X);
  4608     0C1D  1283               	bcf	3,5	;RP0=0, select bank0
  4609     0C1E  1303               	bcf	3,6	;RP1=0, select bank0
  4610     0C1F  0837               	movf	_Data_X+3,w
  4611     0C20  00F4               	movwf	print_value@value+3
  4612     0C21  0836               	movf	_Data_X+2,w
  4613     0C22  00F3               	movwf	print_value@value+2
  4614     0C23  0835               	movf	_Data_X+1,w
  4615     0C24  00F2               	movwf	print_value@value+1
  4616     0C25  0834               	movf	_Data_X,w
  4617     0C26  00F1               	movwf	print_value@value
  4618     0C27  160A  118A  220F  120A  158A  	fcall	_print_value
  4619     0C2C                     i1l2735:
  4620                           
  4621                           ;Digitizer24bitsV1.c: 149:                     print_value(Data_Y);
  4622     0C2C  1283               	bcf	3,5	;RP0=0, select bank0
  4623     0C2D  1303               	bcf	3,6	;RP1=0, select bank0
  4624     0C2E  0833               	movf	_Data_Y+3,w
  4625     0C2F  00F4               	movwf	print_value@value+3
  4626     0C30  0832               	movf	_Data_Y+2,w
  4627     0C31  00F3               	movwf	print_value@value+2
  4628     0C32  0831               	movf	_Data_Y+1,w
  4629     0C33  00F2               	movwf	print_value@value+1
  4630     0C34  0830               	movf	_Data_Y,w
  4631     0C35  00F1               	movwf	print_value@value
  4632     0C36  160A  118A  220F  120A  158A  	fcall	_print_value
  4633     0C3B                     i1l2737:
  4634                           
  4635                           ;Digitizer24bitsV1.c: 150:                     print_value(Data_Z);
  4636     0C3B  1283               	bcf	3,5	;RP0=0, select bank0
  4637     0C3C  1303               	bcf	3,6	;RP1=0, select bank0
  4638     0C3D  082F               	movf	_Data_Z+3,w
  4639     0C3E  00F4               	movwf	print_value@value+3
  4640     0C3F  082E               	movf	_Data_Z+2,w
  4641     0C40  00F3               	movwf	print_value@value+2
  4642     0C41  082D               	movf	_Data_Z+1,w
  4643     0C42  00F2               	movwf	print_value@value+1
  4644     0C43  082C               	movf	_Data_Z,w
  4645     0C44  00F1               	movwf	print_value@value
  4646     0C45  160A  118A  220F  120A  158A  	fcall	_print_value
  4647     0C4A                     i1l2739:
  4648                           
  4649                           ;Digitizer24bitsV1.c: 151:                     print_value(Data_TC);
  4650     0C4A  1283               	bcf	3,5	;RP0=0, select bank0
  4651     0C4B  1303               	bcf	3,6	;RP1=0, select bank0
  4652     0C4C  082B               	movf	_Data_TC+3,w
  4653     0C4D  00F4               	movwf	print_value@value+3
  4654     0C4E  082A               	movf	_Data_TC+2,w
  4655     0C4F  00F3               	movwf	print_value@value+2
  4656     0C50  0829               	movf	_Data_TC+1,w
  4657     0C51  00F2               	movwf	print_value@value+1
  4658     0C52  0828               	movf	_Data_TC,w
  4659     0C53  00F1               	movwf	print_value@value
  4660     0C54  160A  118A  220F  120A  158A  	fcall	_print_value
  4661     0C59                     i1l2741:
  4662                           
  4663                           ;Digitizer24bitsV1.c: 152:                     print_value(Data_TS);
  4664     0C59  1283               	bcf	3,5	;RP0=0, select bank0
  4665     0C5A  1303               	bcf	3,6	;RP1=0, select bank0
  4666     0C5B  0827               	movf	_Data_TS+3,w
  4667     0C5C  00F4               	movwf	print_value@value+3
  4668     0C5D  0826               	movf	_Data_TS+2,w
  4669     0C5E  00F3               	movwf	print_value@value+2
  4670     0C5F  0825               	movf	_Data_TS+1,w
  4671     0C60  00F2               	movwf	print_value@value+1
  4672     0C61  0824               	movf	_Data_TS,w
  4673     0C62  00F1               	movwf	print_value@value
  4674     0C63  160A  118A  220F  120A  158A  	fcall	_print_value
  4675     0C68                     i1l2743:
  4676                           
  4677                           ;Digitizer24bitsV1.c: 153:                     print_value(Data_AUX0);
  4678     0C68  1683               	bsf	3,5	;RP0=1, select bank1
  4679     0C69  1303               	bcf	3,6	;RP1=0, select bank1
  4680     0C6A  082B               	movf	(_Data_AUX0+3)^(0+128),w
  4681     0C6B  00F4               	movwf	print_value@value+3
  4682     0C6C  082A               	movf	(_Data_AUX0+2)^(0+128),w
  4683     0C6D  00F3               	movwf	print_value@value+2
  4684     0C6E  0829               	movf	(_Data_AUX0+1)^(0+128),w
  4685     0C6F  00F2               	movwf	print_value@value+1
  4686     0C70  0828               	movf	_Data_AUX0^(0+128),w
  4687     0C71  00F1               	movwf	print_value@value
  4688     0C72  160A  118A  220F  120A  158A  	fcall	_print_value
  4689     0C77                     i1l2745:
  4690                           
  4691                           ;Digitizer24bitsV1.c: 154:                     print_value(Data_AUX1);
  4692     0C77  1683               	bsf	3,5	;RP0=1, select bank1
  4693     0C78  1303               	bcf	3,6	;RP1=0, select bank1
  4694     0C79  0827               	movf	(_Data_AUX1+3)^(0+128),w
  4695     0C7A  00F4               	movwf	print_value@value+3
  4696     0C7B  0826               	movf	(_Data_AUX1+2)^(0+128),w
  4697     0C7C  00F3               	movwf	print_value@value+2
  4698     0C7D  0825               	movf	(_Data_AUX1+1)^(0+128),w
  4699     0C7E  00F2               	movwf	print_value@value+1
  4700     0C7F  0824               	movf	_Data_AUX1^(0+128),w
  4701     0C80  00F1               	movwf	print_value@value
  4702     0C81  160A  118A  220F  120A  158A  	fcall	_print_value
  4703     0C86                     i1l2747:
  4704                           
  4705                           ;Digitizer24bitsV1.c: 155:                     print_value(Data_AUX2);
  4706     0C86  1683               	bsf	3,5	;RP0=1, select bank1
  4707     0C87  1303               	bcf	3,6	;RP1=0, select bank1
  4708     0C88  0823               	movf	(_Data_AUX2+3)^(0+128),w
  4709     0C89  00F4               	movwf	print_value@value+3
  4710     0C8A  0822               	movf	(_Data_AUX2+2)^(0+128),w
  4711     0C8B  00F3               	movwf	print_value@value+2
  4712     0C8C  0821               	movf	(_Data_AUX2+1)^(0+128),w
  4713     0C8D  00F2               	movwf	print_value@value+1
  4714     0C8E  0820               	movf	_Data_AUX2^(0+128),w
  4715     0C8F  00F1               	movwf	print_value@value
  4716     0C90  160A  118A  220F  120A  158A  	fcall	_print_value
  4717     0C95                     i1l2749:
  4718                           
  4719                           ;Digitizer24bitsV1.c: 156:                     print_string("\n\r");
  4720     0C95  3016               	movlw	(low (((STR_5+21)-__stringbase)| (0+32768)))& (0+255)
  4721     0C96  00F1               	movwf	print_string@str
  4722     0C97  3080               	movlw	128
  4723     0C98  00F2               	movwf	print_string@str+1
  4724     0C99  160A  118A  2195  120A  158A  	fcall	_print_string
  4725     0C9E                     i1l2751:
  4726                           
  4727                           ;Digitizer24bitsV1.c: 158:                     PORTAbits.RA2 = 0;
  4728     0C9E  1283               	bcf	3,5	;RP0=0, select bank0
  4729     0C9F  1303               	bcf	3,6	;RP1=0, select bank0
  4730     0CA0  1105               	bcf	5,2	;volatile
  4731     0CA1  120A  118A  2DF6   	goto	i1l204
  4732                           
  4733                           	psect	text7_split_4
  4734     061B                     i1l2753:
  4735                           
  4736                           ;Digitizer24bitsV1.c: 164:                 TransmitDAT_USART('1');
  4737     061B  3031               	movlw	49
  4738     061C  120A  118A  27CF  120A  118A  	fcall	_TransmitDAT_USART
  4739     0621                     L2:
  4740                           
  4741                           ;Digitizer24bitsV1.c: 165:                 break;
  4742     0621  120A  118A  2DF6   	goto	i1l204
  4743     0624                     i1l2755:
  4744                           
  4745                           ;Digitizer24bitsV1.c: 168:                 TransmitDAT_USART('2');
  4746     0624  3032               	movlw	50
  4747     0625  120A  118A  27CF  120A  118A  	fcall	_TransmitDAT_USART
  4748                           
  4749                           ;Digitizer24bitsV1.c: 169:                 break;
  4750     062A  2E21               	goto	L2
  4751     062B                     i1l148:	
  4752                           ;Digitizer24bitsV1.c: 170:             case 3:
  4753                           
  4754                           
  4755                           ;Digitizer24bitsV1.c: 177:                 __nop();
  4756     062B  0000               	nop
  4757                           
  4758                           ;Digitizer24bitsV1.c: 178:                 break;
  4759     062C  2E21               	goto	L2
  4760     062D                     i1l2757:
  4761     062D  084E               	movf	_CmdGPS,w
  4762     062E  00E2               	movwf	??_Interrups
  4763     062F  01E3               	clrf	??_Interrups+1
  4764                           
  4765                           ; Switch on 2 bytes has been partitioned into a top level switch of size 1, and 1 sub-sw
      +                          itches
  4766                           ; Switch size 1, requested type "simple"
  4767                           ; Number of cases is 1, Range of values is 0 to 0
  4768                           ; switch strategies available:
  4769                           ; Name         Instructions Cycles
  4770                           ; simple_byte            4     3 (average)
  4771                           ; direct_byte           11     8 (fixed)
  4772                           ; jumptable            260     6 (fixed)
  4773                           ;	Chosen strategy is simple_byte
  4774     0630  0863               	movf	??_Interrups+1,w
  4775     0631  3A00               	xorlw	0	; case 0
  4776     0632  1903               	skipnz
  4777     0633  2E35               	goto	i1l3601
  4778     0634  2E2B               	goto	i1l148
  4779     0635                     i1l3601:
  4780                           
  4781                           ; Switch size 1, requested type "simple"
  4782                           ; Number of cases is 4, Range of values is 0 to 3
  4783                           ; switch strategies available:
  4784                           ; Name         Instructions Cycles
  4785                           ; simple_byte           13     7 (average)
  4786                           ; direct_byte           20     8 (fixed)
  4787                           ; jumptable            260     6 (fixed)
  4788                           ;	Chosen strategy is simple_byte
  4789     0635  0862               	movf	??_Interrups,w
  4790     0636  3A00               	xorlw	0	; case 0
  4791     0637  1903               	skipnz
  4792     0638  2FCC               	goto	L4
  4793     0639  3A01               	xorlw	1	; case 1
  4794     063A  1903               	skipnz
  4795     063B  2E1B               	goto	i1l2753
  4796     063C  3A03               	xorlw	3	; case 2
  4797     063D  1903               	skipnz
  4798     063E  2E24               	goto	i1l2755
  4799     063F  3A01               	xorlw	1	; case 3
  4800     0640  1903               	skipnz
  4801     0641  2E2B               	goto	i1l148
  4802     0642  2E2B               	goto	i1l148
  4803     0643                     i1l125:
  4804     0643  1E8C               	btfss	12,5	;volatile
  4805     0644  2E46               	goto	u106_21
  4806     0645  2E49               	goto	u106_20
  4807     0646                     u106_21:
  4808     0646  120A  118A  2860   	goto	i1l151
  4809     0649                     u106_20:
  4810     0649                     i1l2759:
  4811     0649  1683               	bsf	3,5	;RP0=1, select bank1
  4812     064A  1303               	bcf	3,6	;RP1=0, select bank1
  4813     064B  1E8C               	btfss	12,5	;volatile
  4814     064C  2E4E               	goto	u107_21
  4815     064D  2E4F               	goto	u107_20
  4816     064E                     u107_21:
  4817     064E  2E46               	goto	u106_21
  4818     064F                     u107_20:
  4819     064F                     i1l2761:
  4820                           
  4821                           ;Digitizer24bitsV1.c: 183:         ID = ReceiveCMD_USART();
  4822     064F  160A  118A  22D6  120A  118A  	fcall	_ReceiveCMD_USART
  4823     0654  1283               	bcf	3,5	;RP0=0, select bank0
  4824     0655  1303               	bcf	3,6	;RP1=0, select bank0
  4825     0656  00EA               	movwf	Interrups@ID
  4826                           
  4827                           ;Digitizer24bitsV1.c: 184:         switch(ID){
  4828     0657  120A  118A  2834   	goto	i1l3127
  4829     065A                     i1l2763:
  4830                           
  4831                           ;Digitizer24bitsV1.c: 186:                 TransmitCMD_USART('5');
  4832     065A  3035               	movlw	53
  4833     065B  160A  118A  2140  120A  118A  	fcall	_TransmitCMD_USART
  4834     0660                     i1l2765:
  4835                           
  4836                           ;Digitizer24bitsV1.c: 187:                 ControlSample = 0;
  4837     0660  1283               	bcf	3,5	;RP0=0, select bank0
  4838     0661  1303               	bcf	3,6	;RP1=0, select bank0
  4839     0662  01CD               	clrf	_ControlSample
  4840                           
  4841                           ;Digitizer24bitsV1.c: 188:                 break;
  4842     0663  2E21               	goto	L2
  4843     0664                     i1l2767:
  4844                           
  4845                           ;Digitizer24bitsV1.c: 190:                 TransmitCMD_USART('0');
  4846     0664  3030               	movlw	48
  4847     0665  160A  118A  2140  120A  118A  	fcall	_TransmitCMD_USART
  4848     066A                     i1l2769:
  4849                           
  4850                           ;Digitizer24bitsV1.c: 191:                 BufferDAT[0] = 'V';
  4851     066A  3056               	movlw	86
  4852     066B  1683               	bsf	3,5	;RP0=1, select bank1
  4853     066C  1303               	bcf	3,6	;RP1=0, select bank1
  4854     066D  00C0               	movwf	_BufferDAT^(0+128)
  4855     066E                     i1l2771:
  4856                           
  4857                           ;Digitizer24bitsV1.c: 192:                 BufferDAT[1] = '2';
  4858     066E  3032               	movlw	50
  4859     066F  00C1               	movwf	(_BufferDAT^(0+128)+1)
  4860     0670                     i1l2773:
  4861                           
  4862                           ;Digitizer24bitsV1.c: 193:                 BufferDAT[2] = '0';
  4863     0670  3030               	movlw	48
  4864     0671  00C2               	movwf	(_BufferDAT^(0+128)+2)
  4865     0672                     i1l2775:
  4866                           
  4867                           ;Digitizer24bitsV1.c: 194:                 BufferDAT[12] = '\0';
  4868     0672  01CC               	clrf	(_BufferDAT^(0+128)+12)
  4869     0673                     i1l2777:
  4870                           
  4871                           ;Digitizer24bitsV1.c: 195:                 TransmitDAT_USART('0');
  4872     0673  3030               	movlw	48
  4873     0674  120A  118A  27CF  120A  118A  	fcall	_TransmitDAT_USART
  4874                           
  4875                           ;Digitizer24bitsV1.c: 196:                 break;
  4876     0679  2E21               	goto	L2
  4877     067A                     i1l2779:
  4878                           
  4879                           ;Digitizer24bitsV1.c: 198:                 TransmitCMD_USART('1');
  4880     067A  3031               	movlw	49
  4881     067B  160A  118A  2140  120A  118A  	fcall	_TransmitCMD_USART
  4882     0680                     i1l2781:
  4883                           
  4884                           ;Digitizer24bitsV1.c: 201:                 CmdGPS = 1;
  4885     0680  1283               	bcf	3,5	;RP0=0, select bank0
  4886     0681  1303               	bcf	3,6	;RP1=0, select bank0
  4887     0682  01CE               	clrf	_CmdGPS
  4888     0683  0ACE               	incf	_CmdGPS,f
  4889     0684                     i1l2783:
  4890                           
  4891                           ;Digitizer24bitsV1.c: 202:                 OPTION_REGbits.INTEDG = 0;
  4892     0684  1683               	bsf	3,5	;RP0=1, select bank1
  4893     0685  1303               	bcf	3,6	;RP1=0, select bank1
  4894     0686  1301               	bcf	1,6	;volatile
  4895     0687                     i1l2785:
  4896                           
  4897                           ;Digitizer24bitsV1.c: 203:                 INTCONbits.INTF = 0;
  4898     0687  108B               	bcf	11,1	;volatile
  4899     0688                     i1l2787:
  4900                           
  4901                           ;Digitizer24bitsV1.c: 204:                 INTCONbits.INTE = 1;
  4902     0688  160B               	bsf	11,4	;volatile
  4903                           
  4904                           ;Digitizer24bitsV1.c: 206:                 break;
  4905     0689  2E21               	goto	L2
  4906     068A                     i1l2789:
  4907                           
  4908                           ;Digitizer24bitsV1.c: 208:                 TransmitCMD_USART('2');
  4909     068A  3032               	movlw	50
  4910     068B  160A  118A  2140  120A  118A  	fcall	_TransmitCMD_USART
  4911     0690                     i1l2791:
  4912                           
  4913                           ;Digitizer24bitsV1.c: 211:                 CmdGPS = 2;
  4914     0690  3002               	movlw	2
  4915     0691  1283               	bcf	3,5	;RP0=0, select bank0
  4916     0692  1303               	bcf	3,6	;RP1=0, select bank0
  4917     0693  00CE               	movwf	_CmdGPS
  4918     0694                     i1l2793:
  4919                           
  4920                           ;Digitizer24bitsV1.c: 212:                 OPTION_REGbits.INTEDG = 0;
  4921     0694  1683               	bsf	3,5	;RP0=1, select bank1
  4922     0695  1303               	bcf	3,6	;RP1=0, select bank1
  4923     0696  1301               	bcf	1,6	;volatile
  4924     0697                     i1l2795:
  4925                           
  4926                           ;Digitizer24bitsV1.c: 213:                 INTCONbits.INTF = 0;
  4927     0697  108B               	bcf	11,1	;volatile
  4928     0698                     i1l2797:
  4929                           
  4930                           ;Digitizer24bitsV1.c: 214:                 INTCONbits.INTE = 1;
  4931     0698  160B               	bsf	11,4	;volatile
  4932                           
  4933                           ;Digitizer24bitsV1.c: 216:                 break;
  4934     0699  2E21               	goto	L2
  4935     069A                     i1l2799:
  4936                           
  4937                           ;Digitizer24bitsV1.c: 218:                 TransmitCMD_USART('3');
  4938     069A  3033               	movlw	51
  4939     069B  160A  118A  2140  120A  118A  	fcall	_TransmitCMD_USART
  4940     06A0                     i1l2801:
  4941                           
  4942                           ;Digitizer24bitsV1.c: 221:                 BufferDAT[0] = ResetCS5532();
  4943     06A0  160A  118A  2289  120A  118A  	fcall	_ResetCS5532
  4944     06A5  1683               	bsf	3,5	;RP0=1, select bank1
  4945     06A6  1303               	bcf	3,6	;RP1=0, select bank1
  4946     06A7  00C0               	movwf	_BufferDAT^(0+128)
  4947     06A8                     i1l2803:
  4948                           
  4949                           ;Digitizer24bitsV1.c: 222:                 InitCS5532();
  4950     06A8  160A  118A  2177  120A  118A  	fcall	_InitCS5532
  4951     06AD                     i1l2805:
  4952                           
  4953                           ;Digitizer24bitsV1.c: 224:                 ReadRegister_4bytesCS5532(0x09);
  4954     06AD  3009               	movlw	9
  4955     06AE  160A  118A  21E3  120A  118A  	fcall	_ReadRegister_4bytesCS5532
  4956     06B3                     i1l2807:
  4957                           
  4958                           ;Digitizer24bitsV1.c: 225:                 BufferDAT[1] = BufferSPI[0];
  4959     06B3  1683               	bsf	3,5	;RP0=1, select bank1
  4960     06B4  1303               	bcf	3,6	;RP1=0, select bank1
  4961     06B5  083C               	movf	_BufferSPI^(0+128),w
  4962     06B6  00C1               	movwf	(_BufferDAT^(0+128)+1)
  4963     06B7                     i1l2809:
  4964                           
  4965                           ;Digitizer24bitsV1.c: 226:                 BufferDAT[2] = BufferSPI[1];
  4966     06B7  083D               	movf	(_BufferSPI^(0+128)+1),w
  4967     06B8  00C2               	movwf	(_BufferDAT^(0+128)+2)
  4968     06B9                     i1l2811:
  4969                           
  4970                           ;Digitizer24bitsV1.c: 227:                 BufferDAT[3] = BufferSPI[2];
  4971     06B9  083E               	movf	(_BufferSPI^(0+128)+2),w
  4972     06BA  00C3               	movwf	(_BufferDAT^(0+128)+3)
  4973     06BB                     i1l2813:
  4974                           
  4975                           ;Digitizer24bitsV1.c: 228:                 BufferDAT[4] = BufferSPI[3];
  4976     06BB  083F               	movf	(_BufferSPI^(0+128)+3),w
  4977     06BC  00C4               	movwf	(_BufferDAT^(0+128)+4)
  4978     06BD                     i1l2815:
  4979                           
  4980                           ;Digitizer24bitsV1.c: 231:                 ReadRegister_4bytesCS5532(0x0A);
  4981     06BD  300A               	movlw	10
  4982     06BE  160A  118A  21E3  120A  118A  	fcall	_ReadRegister_4bytesCS5532
  4983     06C3                     i1l2817:
  4984                           
  4985                           ;Digitizer24bitsV1.c: 232:                 BufferDAT[5] = BufferSPI[0];
  4986     06C3  1683               	bsf	3,5	;RP0=1, select bank1
  4987     06C4  1303               	bcf	3,6	;RP1=0, select bank1
  4988     06C5  083C               	movf	_BufferSPI^(0+128),w
  4989     06C6  00C5               	movwf	(_BufferDAT^(0+128)+5)
  4990     06C7                     i1l2819:
  4991                           
  4992                           ;Digitizer24bitsV1.c: 233:                 BufferDAT[6] = BufferSPI[1];
  4993     06C7  083D               	movf	(_BufferSPI^(0+128)+1),w
  4994     06C8  00C6               	movwf	(_BufferDAT^(0+128)+6)
  4995     06C9                     i1l2821:
  4996                           
  4997                           ;Digitizer24bitsV1.c: 234:                 BufferDAT[7] = BufferSPI[2];
  4998     06C9  083E               	movf	(_BufferSPI^(0+128)+2),w
  4999     06CA  00C7               	movwf	(_BufferDAT^(0+128)+7)
  5000     06CB                     i1l2823:
  5001                           
  5002                           ;Digitizer24bitsV1.c: 235:                 BufferDAT[8] = BufferSPI[3];
  5003     06CB  083F               	movf	(_BufferSPI^(0+128)+3),w
  5004     06CC  00C8               	movwf	(_BufferDAT^(0+128)+8)
  5005     06CD                     i1l2825:
  5006                           
  5007                           ;Digitizer24bitsV1.c: 236:                 BufferDAT[12] = '\0';
  5008     06CD  01CC               	clrf	(_BufferDAT^(0+128)+12)
  5009     06CE                     i1l2827:
  5010                           
  5011                           ;Digitizer24bitsV1.c: 237:                 TransmitDAT_USART('3');
  5012     06CE  3033               	movlw	51
  5013     06CF  120A  118A  27CF  120A  118A  	fcall	_TransmitDAT_USART
  5014                           
  5015                           ;Digitizer24bitsV1.c: 239:                 break;
  5016     06D4  2E21               	goto	L2
  5017     06D5                     i1l2829:
  5018                           
  5019                           ;Digitizer24bitsV1.c: 241:                 TransmitCMD_USART('4');
  5020     06D5  3034               	movlw	52
  5021     06D6  160A  118A  2140  120A  118A  	fcall	_TransmitCMD_USART
  5022     06DB                     i1l2831:
  5023                           
  5024                           ;Digitizer24bitsV1.c: 243:                 CmdGPS = 0;
  5025     06DB  1283               	bcf	3,5	;RP0=0, select bank0
  5026     06DC  1303               	bcf	3,6	;RP1=0, select bank0
  5027     06DD  01CE               	clrf	_CmdGPS
  5028     06DE                     i1l2833:
  5029                           
  5030                           ;Digitizer24bitsV1.c: 244:                 ControlSample = 1;
  5031     06DE  01CD               	clrf	_ControlSample
  5032     06DF  0ACD               	incf	_ControlSample,f
  5033     06E0                     i1l2835:
  5034                           
  5035                           ;Digitizer24bitsV1.c: 245:                 TransferByte_SPI(0xC0);
  5036     06E0  30C0               	movlw	192
  5037     06E1  160A  118A  210B  120A  118A  	fcall	_TransferByte_SPI
  5038     06E6                     i1l2837:
  5039                           
  5040                           ;Digitizer24bitsV1.c: 246:                 OPTION_REGbits.INTEDG = 0;
  5041     06E6  1683               	bsf	3,5	;RP0=1, select bank1
  5042     06E7  1303               	bcf	3,6	;RP1=0, select bank1
  5043     06E8  1301               	bcf	1,6	;volatile
  5044     06E9                     i1l2839:
  5045                           
  5046                           ;Digitizer24bitsV1.c: 247:                 INTCONbits.INTF = 0;
  5047     06E9  108B               	bcf	11,1	;volatile
  5048     06EA                     i1l2841:
  5049                           
  5050                           ;Digitizer24bitsV1.c: 248:                 INTCONbits.INTE = 1;
  5051     06EA  160B               	bsf	11,4	;volatile
  5052                           
  5053                           ;Digitizer24bitsV1.c: 250:                 break;
  5054     06EB  2E21               	goto	L2
  5055     06EC                     i1l2843:
  5056                           
  5057                           ;Digitizer24bitsV1.c: 252:                 TransmitCMD_USART('6');
  5058     06EC  3036               	movlw	54
  5059     06ED  160A  118A  2140  120A  118A  	fcall	_TransmitCMD_USART
  5060     06F2                     i1l2845:
  5061                           
  5062                           ;Digitizer24bitsV1.c: 254:                 PORTB = 0x0C;
  5063     06F2  300C               	movlw	12
  5064     06F3  1283               	bcf	3,5	;RP0=0, select bank0
  5065     06F4  1303               	bcf	3,6	;RP1=0, select bank0
  5066     06F5  0086               	movwf	6	;volatile
  5067     06F6                     i1l2847:
  5068                           
  5069                           ;Digitizer24bitsV1.c: 255:                 _delay((unsigned long)((7)*(9830400UL/4000.0)
      +                          ));
  5070     06F6  3017               	movlw	23
  5071     06F7  1283               	bcf	3,5	;RP0=0, select bank0
  5072     06F8  1303               	bcf	3,6	;RP1=0, select bank0
  5073     06F9  00E3               	movwf	??_Interrups+1
  5074     06FA  3055               	movlw	85
  5075     06FB  00E2               	movwf	??_Interrups
  5076     06FC                     u138_27:
  5077     06FC  0BE2               	decfsz	??_Interrups,f
  5078     06FD  2EFC               	goto	u138_27
  5079     06FE  0BE3               	decfsz	??_Interrups+1,f
  5080     06FF  2EFC               	goto	u138_27
  5081     0700  0000               	nop
  5082     0701                     i1l2849:
  5083                           
  5084                           ;Digitizer24bitsV1.c: 256:                 SumData_GND = 0;
  5085     0701  3000               	movlw	0
  5086     0702  1683               	bsf	3,5	;RP0=1, select bank1
  5087     0703  1303               	bcf	3,6	;RP1=0, select bank1
  5088     0704  00BB               	movwf	(_SumData_GND+3)^(0+128)
  5089     0705  3000               	movlw	0
  5090     0706  00BA               	movwf	(_SumData_GND+2)^(0+128)
  5091     0707  3000               	movlw	0
  5092     0708  00B9               	movwf	(_SumData_GND+1)^(0+128)
  5093     0709  3000               	movlw	0
  5094     070A  00B8               	movwf	_SumData_GND^(0+128)
  5095     070B                     i1l2851:
  5096                           
  5097                           ;Digitizer24bitsV1.c: 257:                 TransferByte_SPI(0x80);
  5098     070B  3080               	movlw	128
  5099     070C  160A  118A  210B  120A  118A  	fcall	_TransferByte_SPI
  5100     0711                     i1l2853:
  5101                           
  5102                           ;Digitizer24bitsV1.c: 258:                 ReadAD24(0,0x00);
  5103     0711  1283               	bcf	3,5	;RP0=0, select bank0
  5104     0712  1303               	bcf	3,6	;RP1=0, select bank0
  5105     0713  01D5               	clrf	ReadAD24@cmd_convert
  5106     0714  3000               	movlw	0
  5107     0715  160A  118A  23DE  120A  118A  	fcall	_ReadAD24
  5108     071A                     i1l2855:
  5109                           
  5110                           ;Digitizer24bitsV1.c: 259:                 for(conta=0; conta<5; conta++){
  5111     071A  1283               	bcf	3,5	;RP0=0, select bank0
  5112     071B  1303               	bcf	3,6	;RP1=0, select bank0
  5113     071C  01EB               	clrf	Interrups@conta
  5114     071D                     i1l2857:
  5115     071D  3005               	movlw	5
  5116     071E  026B               	subwf	Interrups@conta,w
  5117     071F  1C03               	skipc
  5118     0720  2F22               	goto	u108_21
  5119     0721  2F23               	goto	u108_20
  5120     0722                     u108_21:
  5121     0722  2F24               	goto	i1l2861
  5122     0723                     u108_20:
  5123     0723  2F9D               	goto	i1l2871
  5124     0724                     i1l2861:
  5125                           
  5126                           ;Digitizer24bitsV1.c: 260:                     TransferByte_SPI(0x80);
  5127     0724  3080               	movlw	128
  5128     0725  160A  118A  210B  120A  118A  	fcall	_TransferByte_SPI
  5129     072A                     i1l2863:
  5130                           
  5131                           ;Digitizer24bitsV1.c: 261:                     Data_GND = ReadAD24(1,0x00);
  5132     072A  1283               	bcf	3,5	;RP0=0, select bank0
  5133     072B  1303               	bcf	3,6	;RP1=0, select bank0
  5134     072C  01D5               	clrf	ReadAD24@cmd_convert
  5135     072D  3001               	movlw	1
  5136     072E  160A  118A  23DE  120A  118A  	fcall	_ReadAD24
  5137     0733  1283               	bcf	3,5	;RP0=0, select bank0
  5138     0734  1303               	bcf	3,6	;RP1=0, select bank0
  5139     0735  0858               	movf	?_ReadAD24+3,w
  5140     0736  1683               	bsf	3,5	;RP0=1, select bank1
  5141     0737  1303               	bcf	3,6	;RP1=0, select bank1
  5142     0738  00B7               	movwf	(_Data_GND+3)^(0+128)
  5143     0739  1283               	bcf	3,5	;RP0=0, select bank0
  5144     073A  1303               	bcf	3,6	;RP1=0, select bank0
  5145     073B  0857               	movf	?_ReadAD24+2,w
  5146     073C  1683               	bsf	3,5	;RP0=1, select bank1
  5147     073D  1303               	bcf	3,6	;RP1=0, select bank1
  5148     073E  00B6               	movwf	(_Data_GND+2)^(0+128)
  5149     073F  1283               	bcf	3,5	;RP0=0, select bank0
  5150     0740  1303               	bcf	3,6	;RP1=0, select bank0
  5151     0741  0856               	movf	?_ReadAD24+1,w
  5152     0742  1683               	bsf	3,5	;RP0=1, select bank1
  5153     0743  1303               	bcf	3,6	;RP1=0, select bank1
  5154     0744  00B5               	movwf	(_Data_GND+1)^(0+128)
  5155     0745  1283               	bcf	3,5	;RP0=0, select bank0
  5156     0746  1303               	bcf	3,6	;RP1=0, select bank0
  5157     0747  0855               	movf	?_ReadAD24,w
  5158     0748  1683               	bsf	3,5	;RP0=1, select bank1
  5159     0749  1303               	bcf	3,6	;RP1=0, select bank1
  5160     074A  00B4               	movwf	_Data_GND^(0+128)
  5161     074B                     i1l2865:
  5162                           
  5163                           ;Digitizer24bitsV1.c: 262:                     SumData_GND = SumData_GND + Data_GND;
  5164     074B  0838               	movf	_SumData_GND^(0+128),w
  5165     074C  0734               	addwf	_Data_GND^(0+128),w
  5166     074D  1283               	bcf	3,5	;RP0=0, select bank0
  5167     074E  1303               	bcf	3,6	;RP1=0, select bank0
  5168     074F  00E2               	movwf	??_Interrups
  5169     0750  3000               	movlw	0
  5170     0751  1803               	skipnc
  5171     0752  3001               	movlw	1
  5172     0753  1683               	bsf	3,5	;RP0=1, select bank1
  5173     0754  1303               	bcf	3,6	;RP1=0, select bank1
  5174     0755  0739               	addwf	(_SumData_GND+1)^(0+128),w
  5175     0756  1283               	bcf	3,5	;RP0=0, select bank0
  5176     0757  1303               	bcf	3,6	;RP1=0, select bank0
  5177     0758  01E4               	clrf	??_Interrups+2
  5178     0759  1803               	skipnc
  5179     075A  0AE4               	incf	??_Interrups+2,f
  5180     075B  1683               	bsf	3,5	;RP0=1, select bank1
  5181     075C  1303               	bcf	3,6	;RP1=0, select bank1
  5182     075D  0735               	addwf	(_Data_GND+1)^(0+128),w
  5183     075E  1283               	bcf	3,5	;RP0=0, select bank0
  5184     075F  1303               	bcf	3,6	;RP1=0, select bank0
  5185     0760  00E3               	movwf	??_Interrups+1
  5186     0761  1803               	skipnc
  5187     0762  0AE4               	incf	??_Interrups+2,f
  5188     0763  1683               	bsf	3,5	;RP0=1, select bank1
  5189     0764  1303               	bcf	3,6	;RP1=0, select bank1
  5190     0765  083A               	movf	(_SumData_GND+2)^(0+128),w
  5191     0766  1283               	bcf	3,5	;RP0=0, select bank0
  5192     0767  1303               	bcf	3,6	;RP1=0, select bank0
  5193     0768  0764               	addwf	??_Interrups+2,w
  5194     0769  01E5               	clrf	??_Interrups+3
  5195     076A  1803               	skipnc
  5196     076B  0AE5               	incf	??_Interrups+3,f
  5197     076C  1683               	bsf	3,5	;RP0=1, select bank1
  5198     076D  1303               	bcf	3,6	;RP1=0, select bank1
  5199     076E  0736               	addwf	(_Data_GND+2)^(0+128),w
  5200     076F  1283               	bcf	3,5	;RP0=0, select bank0
  5201     0770  1303               	bcf	3,6	;RP1=0, select bank0
  5202     0771  00E4               	movwf	??_Interrups+2
  5203     0772  1803               	skipnc
  5204     0773  0AE5               	incf	??_Interrups+3,f
  5205     0774  1683               	bsf	3,5	;RP0=1, select bank1
  5206     0775  1303               	bcf	3,6	;RP1=0, select bank1
  5207     0776  083B               	movf	(_SumData_GND+3)^(0+128),w
  5208     0777  1283               	bcf	3,5	;RP0=0, select bank0
  5209     0778  1303               	bcf	3,6	;RP1=0, select bank0
  5210     0779  0765               	addwf	??_Interrups+3,w
  5211     077A  1683               	bsf	3,5	;RP0=1, select bank1
  5212     077B  1303               	bcf	3,6	;RP1=0, select bank1
  5213     077C  0737               	addwf	(_Data_GND+3)^(0+128),w
  5214     077D  1283               	bcf	3,5	;RP0=0, select bank0
  5215     077E  1303               	bcf	3,6	;RP1=0, select bank0
  5216     077F  00E5               	movwf	??_Interrups+3
  5217     0780  0865               	movf	??_Interrups+3,w
  5218     0781  1683               	bsf	3,5	;RP0=1, select bank1
  5219     0782  1303               	bcf	3,6	;RP1=0, select bank1
  5220     0783  00BB               	movwf	(_SumData_GND+3)^(0+128)
  5221     0784  1283               	bcf	3,5	;RP0=0, select bank0
  5222     0785  1303               	bcf	3,6	;RP1=0, select bank0
  5223     0786  0864               	movf	??_Interrups+2,w
  5224     0787  1683               	bsf	3,5	;RP0=1, select bank1
  5225     0788  1303               	bcf	3,6	;RP1=0, select bank1
  5226     0789  00BA               	movwf	(_SumData_GND+2)^(0+128)
  5227     078A  1283               	bcf	3,5	;RP0=0, select bank0
  5228     078B  1303               	bcf	3,6	;RP1=0, select bank0
  5229     078C  0863               	movf	??_Interrups+1,w
  5230     078D  1683               	bsf	3,5	;RP0=1, select bank1
  5231     078E  1303               	bcf	3,6	;RP1=0, select bank1
  5232     078F  00B9               	movwf	(_SumData_GND+1)^(0+128)
  5233     0790  1283               	bcf	3,5	;RP0=0, select bank0
  5234     0791  1303               	bcf	3,6	;RP1=0, select bank0
  5235     0792  0862               	movf	??_Interrups,w
  5236     0793  1683               	bsf	3,5	;RP0=1, select bank1
  5237     0794  1303               	bcf	3,6	;RP1=0, select bank1
  5238     0795  00B8               	movwf	_SumData_GND^(0+128)
  5239     0796                     i1l2867:
  5240                           
  5241                           ;Digitizer24bitsV1.c: 263:                 }
  5242     0796  3001               	movlw	1
  5243     0797  00FF               	movwf	btemp+1
  5244     0798  087F               	movf	btemp+1,w
  5245     0799  1283               	bcf	3,5	;RP0=0, select bank0
  5246     079A  1303               	bcf	3,6	;RP1=0, select bank0
  5247     079B  07EB               	addwf	Interrups@conta,f
  5248     079C  2F1D               	goto	i1l2857
  5249     079D                     i1l2871:
  5250                           
  5251                           ;Digitizer24bitsV1.c: 264:                 Data_GND = SumData_GND/5;
  5252     079D  3000               	movlw	0
  5253     079E  00F3               	movwf	___aldiv@divisor+3
  5254     079F  3000               	movlw	0
  5255     07A0  00F2               	movwf	___aldiv@divisor+2
  5256     07A1  3000               	movlw	0
  5257     07A2  00F1               	movwf	___aldiv@divisor+1
  5258     07A3  3005               	movlw	5
  5259     07A4  00F0               	movwf	___aldiv@divisor
  5260     07A5  1683               	bsf	3,5	;RP0=1, select bank1
  5261     07A6  1303               	bcf	3,6	;RP1=0, select bank1
  5262     07A7  083B               	movf	(_SumData_GND+3)^(0+128),w
  5263     07A8  00F7               	movwf	___aldiv@dividend+3
  5264     07A9  083A               	movf	(_SumData_GND+2)^(0+128),w
  5265     07AA  00F6               	movwf	___aldiv@dividend+2
  5266     07AB  0839               	movf	(_SumData_GND+1)^(0+128),w
  5267     07AC  00F5               	movwf	___aldiv@dividend+1
  5268     07AD  0838               	movf	_SumData_GND^(0+128),w
  5269     07AE  00F4               	movwf	___aldiv@dividend
  5270     07AF  160A  118A  2341  120A  118A  	fcall	___aldiv
  5271     07B4  0873               	movf	?___aldiv+3,w
  5272     07B5  1683               	bsf	3,5	;RP0=1, select bank1
  5273     07B6  1303               	bcf	3,6	;RP1=0, select bank1
  5274     07B7  00B7               	movwf	(_Data_GND+3)^(0+128)
  5275     07B8  0872               	movf	?___aldiv+2,w
  5276     07B9  00B6               	movwf	(_Data_GND+2)^(0+128)
  5277     07BA  0871               	movf	?___aldiv+1,w
  5278     07BB  00B5               	movwf	(_Data_GND+1)^(0+128)
  5279     07BC  0870               	movf	?___aldiv,w
  5280     07BD  00B4               	movwf	_Data_GND^(0+128)
  5281     07BE                     i1l2873:
  5282                           
  5283                           ;Digitizer24bitsV1.c: 265:                 print_value(Data_GND);
  5284     07BE  0837               	movf	(_Data_GND+3)^(0+128),w
  5285     07BF  00F4               	movwf	print_value@value+3
  5286     07C0  0836               	movf	(_Data_GND+2)^(0+128),w
  5287     07C1  00F3               	movwf	print_value@value+2
  5288     07C2  0835               	movf	(_Data_GND+1)^(0+128),w
  5289     07C3  00F2               	movwf	print_value@value+1
  5290     07C4  0834               	movf	_Data_GND^(0+128),w
  5291     07C5  00F1               	movwf	print_value@value
  5292     07C6  160A  118A  220F  120A  118A  	fcall	_print_value
  5293                           
  5294                           ;Digitizer24bitsV1.c: 267:                 break;
  5295     07CB  2E21               	goto	L2
  5296     07CC                     L4:
  5297     07CC                     L3:
  5298     07CC  120A  118A  2E03   	ljmp	L1
  5299                           
  5300                           	psect	text7_split_5
  5301     14A0                     i1l2875:
  5302                           
  5303                           ;Digitizer24bitsV1.c: 269:                 TransmitCMD_USART('7');
  5304     14A0  3037               	movlw	55
  5305     14A1  160A  118A  2140  160A  118A  	fcall	_TransmitCMD_USART
  5306     14A6                     L7:
  5307                           
  5308                           ;Digitizer24bitsV1.c: 270:                 break;
  5309     14A6  120A  118A  2DF6   	goto	i1l204
  5310     14A9                     i1l2877:
  5311                           
  5312                           ;Digitizer24bitsV1.c: 272:                 TransmitCMD_USART('8');
  5313     14A9  3038               	movlw	56
  5314     14AA  160A  118A  2140  160A  118A  	fcall	_TransmitCMD_USART
  5315     14AF                     i1l2879:
  5316                           
  5317                           ;Digitizer24bitsV1.c: 275:                 CmdGPS = 3;
  5318     14AF  3003               	movlw	3
  5319     14B0  1283               	bcf	3,5	;RP0=0, select bank0
  5320     14B1  1303               	bcf	3,6	;RP1=0, select bank0
  5321     14B2  00CE               	movwf	_CmdGPS
  5322     14B3                     i1l2881:
  5323                           
  5324                           ;Digitizer24bitsV1.c: 276:                 OPTION_REGbits.INTEDG = 0;
  5325     14B3  1683               	bsf	3,5	;RP0=1, select bank1
  5326     14B4  1303               	bcf	3,6	;RP1=0, select bank1
  5327     14B5  1301               	bcf	1,6	;volatile
  5328     14B6                     i1l2883:
  5329                           
  5330                           ;Digitizer24bitsV1.c: 277:                 INTCONbits.INTF = 0;
  5331     14B6  108B               	bcf	11,1	;volatile
  5332     14B7                     i1l2885:
  5333                           
  5334                           ;Digitizer24bitsV1.c: 278:                 INTCONbits.INTE = 1;
  5335     14B7  160B               	bsf	11,4	;volatile
  5336                           
  5337                           ;Digitizer24bitsV1.c: 280:                 break;
  5338     14B8  2CA6               	goto	L7
  5339     14B9                     i1l165:	
  5340                           ;Digitizer24bitsV1.c: 281:             case '9':
  5341                           
  5342                           
  5343                           ;Digitizer24bitsV1.c: 283:                 PORTAbits.RA2 = 1;
  5344     14B9  1505               	bsf	5,2	;volatile
  5345     14BA                     i1l2887:
  5346                           
  5347                           ;Digitizer24bitsV1.c: 286:                 TMR1H = 0x10;
  5348     14BA  3010               	movlw	16
  5349     14BB  008F               	movwf	15	;volatile
  5350                           
  5351                           ;Digitizer24bitsV1.c: 287:                 TMR1L = 0x06;
  5352     14BC  3006               	movlw	6
  5353     14BD  008E               	movwf	14	;volatile
  5354                           
  5355                           ;Digitizer24bitsV1.c: 288:                 T1CON = 0x31;
  5356     14BE  3031               	movlw	49
  5357     14BF  0090               	movwf	16	;volatile
  5358     14C0                     i1l2889:
  5359                           
  5360                           ;Digitizer24bitsV1.c: 289:                 PIR1bits.TMR1IF = 0;
  5361     14C0  100C               	bcf	12,0	;volatile
  5362     14C1                     i1l2891:
  5363                           
  5364                           ;Digitizer24bitsV1.c: 290:                 PIE1bits.TMR1IE = 1;
  5365     14C1  1683               	bsf	3,5	;RP0=1, select bank1
  5366     14C2  1303               	bcf	3,6	;RP1=0, select bank1
  5367     14C3  140C               	bsf	12,0	;volatile
  5368     14C4                     i1l2893:
  5369                           
  5370                           ;Digitizer24bitsV1.c: 292:                 TransmitCMD_USART('9');
  5371     14C4  3039               	movlw	57
  5372     14C5  160A  118A  2140  160A  118A  	fcall	_TransmitCMD_USART
  5373     14CA                     i1l2895:
  5374                           
  5375                           ;Digitizer24bitsV1.c: 294:                 TransferByte_SPI(0xC0);
  5376     14CA  30C0               	movlw	192
  5377     14CB  160A  118A  210B  160A  118A  	fcall	_TransferByte_SPI
  5378     14D0                     i1l2897:
  5379                           
  5380                           ;Digitizer24bitsV1.c: 297:                 ContaSample = 0;
  5381     14D0  1283               	bcf	3,5	;RP0=0, select bank0
  5382     14D1  1303               	bcf	3,6	;RP1=0, select bank0
  5383     14D2  01CC               	clrf	_ContaSample
  5384     14D3                     i1l2899:
  5385                           
  5386                           ;Digitizer24bitsV1.c: 298:                 ControlSample = 0;
  5387     14D3  01CD               	clrf	_ControlSample
  5388     14D4                     i1l2901:
  5389                           
  5390                           ;Digitizer24bitsV1.c: 301:                 print_string("G-JRODATEXXXXXXXXXXXX\n\r");
  5391     14D4  3001               	movlw	(low ((STR_5-__stringbase)| (0+32768)))& (0+255)
  5392     14D5  00F1               	movwf	print_string@str
  5393     14D6  3080               	movlw	128
  5394     14D7  00F2               	movwf	print_string@str+1
  5395     14D8  160A  118A  2195  160A  118A  	fcall	_print_string
  5396     14DD                     i1l2903:
  5397                           
  5398                           ;Digitizer24bitsV1.c: 305:                 CleanHolding();
  5399     14DD  160A  118A  212B  160A  118A  	fcall	_CleanHolding
  5400     14E2                     i1l2905:
  5401                           
  5402                           ;Digitizer24bitsV1.c: 307:                 PORTB = 0x38;
  5403     14E2  3038               	movlw	56
  5404     14E3  1283               	bcf	3,5	;RP0=0, select bank0
  5405     14E4  1303               	bcf	3,6	;RP1=0, select bank0
  5406     14E5  0086               	movwf	6	;volatile
  5407     14E6                     i1l2907:
  5408                           
  5409                           ;Digitizer24bitsV1.c: 308:                 PORTBbits.RB7 = 1;
  5410     14E6  1786               	bsf	6,7	;volatile
  5411     14E7                     i1l2909:
  5412                           
  5413                           ;Digitizer24bitsV1.c: 309:                 _delay((unsigned long)((7)*(9830400UL/4000.0)
      +                          ));
  5414     14E7  3017               	movlw	23
  5415     14E8  1283               	bcf	3,5	;RP0=0, select bank0
  5416     14E9  1303               	bcf	3,6	;RP1=0, select bank0
  5417     14EA  00E3               	movwf	??_Interrups+1
  5418     14EB  3055               	movlw	85
  5419     14EC  00E2               	movwf	??_Interrups
  5420     14ED                     u139_27:
  5421     14ED  0BE2               	decfsz	??_Interrups,f
  5422     14EE  2CED               	goto	u139_27
  5423     14EF  0BE3               	decfsz	??_Interrups+1,f
  5424     14F0  2CED               	goto	u139_27
  5425     14F1  0000               	nop
  5426     14F2                     i1l2911:
  5427                           
  5428                           ;Digitizer24bitsV1.c: 310:                 SumData_X = 0;
  5429     14F2  3000               	movlw	0
  5430     14F3  1283               	bcf	3,5	;RP0=0, select bank0
  5431     14F4  1303               	bcf	3,6	;RP1=0, select bank0
  5432     14F5  00CB               	movwf	_SumData_X+3
  5433     14F6  3000               	movlw	0
  5434     14F7  00CA               	movwf	_SumData_X+2
  5435     14F8  3000               	movlw	0
  5436     14F9  00C9               	movwf	_SumData_X+1
  5437     14FA  3000               	movlw	0
  5438     14FB  00C8               	movwf	_SumData_X
  5439     14FC                     i1l2913:
  5440                           
  5441                           ;Digitizer24bitsV1.c: 311:                 ReadAD24(0,0x00);
  5442     14FC  01D5               	clrf	ReadAD24@cmd_convert
  5443     14FD  3000               	movlw	0
  5444     14FE  160A  118A  23DE  160A  118A  	fcall	_ReadAD24
  5445     1503                     i1l2915:
  5446                           
  5447                           ;Digitizer24bitsV1.c: 312:                 for(conta=0; conta<5; conta++){
  5448     1503  1283               	bcf	3,5	;RP0=0, select bank0
  5449     1504  1303               	bcf	3,6	;RP1=0, select bank0
  5450     1505  01EB               	clrf	Interrups@conta
  5451     1506                     i1l2917:
  5452     1506  3005               	movlw	5
  5453     1507  026B               	subwf	Interrups@conta,w
  5454     1508  1C03               	skipc
  5455     1509  2D0B               	goto	u109_21
  5456     150A  2D0C               	goto	u109_20
  5457     150B                     u109_21:
  5458     150B  2D0D               	goto	i1l2921
  5459     150C                     u109_20:
  5460     150C  2D46               	goto	i1l167
  5461     150D                     i1l2921:
  5462                           
  5463                           ;Digitizer24bitsV1.c: 313:                     Data_X = ReadAD24(1,0x00);
  5464     150D  01D5               	clrf	ReadAD24@cmd_convert
  5465     150E  3001               	movlw	1
  5466     150F  160A  118A  23DE  160A  118A  	fcall	_ReadAD24
  5467     1514  1283               	bcf	3,5	;RP0=0, select bank0
  5468     1515  1303               	bcf	3,6	;RP1=0, select bank0
  5469     1516  0858               	movf	?_ReadAD24+3,w
  5470     1517  00B7               	movwf	_Data_X+3
  5471     1518  0857               	movf	?_ReadAD24+2,w
  5472     1519  00B6               	movwf	_Data_X+2
  5473     151A  0856               	movf	?_ReadAD24+1,w
  5474     151B  00B5               	movwf	_Data_X+1
  5475     151C  0855               	movf	?_ReadAD24,w
  5476     151D  00B4               	movwf	_Data_X
  5477     151E                     i1l2923:
  5478                           
  5479                           ;Digitizer24bitsV1.c: 314:                     SumData_X = SumData_X + Data_X;
  5480     151E  0848               	movf	_SumData_X,w
  5481     151F  0734               	addwf	_Data_X,w
  5482     1520  00E2               	movwf	??_Interrups
  5483     1521  3000               	movlw	0
  5484     1522  1803               	skipnc
  5485     1523  3001               	movlw	1
  5486     1524  0749               	addwf	_SumData_X+1,w
  5487     1525  01E4               	clrf	??_Interrups+2
  5488     1526  1803               	skipnc
  5489     1527  0AE4               	incf	??_Interrups+2,f
  5490     1528  0735               	addwf	_Data_X+1,w
  5491     1529  00E3               	movwf	??_Interrups+1
  5492     152A  1803               	skipnc
  5493     152B  0AE4               	incf	??_Interrups+2,f
  5494     152C  084A               	movf	_SumData_X+2,w
  5495     152D  0764               	addwf	??_Interrups+2,w
  5496     152E  01E5               	clrf	??_Interrups+3
  5497     152F  1803               	skipnc
  5498     1530  0AE5               	incf	??_Interrups+3,f
  5499     1531  0736               	addwf	_Data_X+2,w
  5500     1532  00E4               	movwf	??_Interrups+2
  5501     1533  1803               	skipnc
  5502     1534  0AE5               	incf	??_Interrups+3,f
  5503     1535  084B               	movf	_SumData_X+3,w
  5504     1536  0765               	addwf	??_Interrups+3,w
  5505     1537  0737               	addwf	_Data_X+3,w
  5506     1538  00E5               	movwf	??_Interrups+3
  5507     1539  0865               	movf	??_Interrups+3,w
  5508     153A  00CB               	movwf	_SumData_X+3
  5509     153B  0864               	movf	??_Interrups+2,w
  5510     153C  00CA               	movwf	_SumData_X+2
  5511     153D  0863               	movf	??_Interrups+1,w
  5512     153E  00C9               	movwf	_SumData_X+1
  5513     153F  0862               	movf	??_Interrups,w
  5514     1540  00C8               	movwf	_SumData_X
  5515     1541                     i1l2925:
  5516                           
  5517                           ;Digitizer24bitsV1.c: 315:                 }
  5518     1541  3001               	movlw	1
  5519     1542  00FF               	movwf	btemp+1
  5520     1543  087F               	movf	btemp+1,w
  5521     1544  07EB               	addwf	Interrups@conta,f
  5522     1545  2D06               	goto	i1l2917
  5523     1546                     i1l167:
  5524                           
  5525                           ;Digitizer24bitsV1.c: 316:                 PORTBbits.RB7 = 0;
  5526     1546  1386               	bcf	6,7	;volatile
  5527     1547                     i1l2929:
  5528                           
  5529                           ;Digitizer24bitsV1.c: 318:                 CleanHolding();
  5530     1547  160A  118A  212B  160A  118A  	fcall	_CleanHolding
  5531     154C                     i1l2931:
  5532                           
  5533                           ;Digitizer24bitsV1.c: 320:                 PORTB = 0x18;
  5534     154C  3018               	movlw	24
  5535     154D  1283               	bcf	3,5	;RP0=0, select bank0
  5536     154E  1303               	bcf	3,6	;RP1=0, select bank0
  5537     154F  0086               	movwf	6	;volatile
  5538     1550                     i1l2933:
  5539                           
  5540                           ;Digitizer24bitsV1.c: 321:                 _delay((unsigned long)((7)*(9830400UL/4000.0)
      +                          ));
  5541     1550  3017               	movlw	23
  5542     1551  1283               	bcf	3,5	;RP0=0, select bank0
  5543     1552  1303               	bcf	3,6	;RP1=0, select bank0
  5544     1553  00E3               	movwf	??_Interrups+1
  5545     1554  3055               	movlw	85
  5546     1555  00E2               	movwf	??_Interrups
  5547     1556                     u140_27:
  5548     1556  0BE2               	decfsz	??_Interrups,f
  5549     1557  2D56               	goto	u140_27
  5550     1558  0BE3               	decfsz	??_Interrups+1,f
  5551     1559  2D56               	goto	u140_27
  5552     155A  0000               	nop
  5553     155B                     i1l2935:
  5554                           
  5555                           ;Digitizer24bitsV1.c: 322:                 SumData_Y = 0;
  5556     155B  3000               	movlw	0
  5557     155C  1283               	bcf	3,5	;RP0=0, select bank0
  5558     155D  1303               	bcf	3,6	;RP1=0, select bank0
  5559     155E  00C7               	movwf	_SumData_Y+3
  5560     155F  3000               	movlw	0
  5561     1560  00C6               	movwf	_SumData_Y+2
  5562     1561  3000               	movlw	0
  5563     1562  00C5               	movwf	_SumData_Y+1
  5564     1563  3000               	movlw	0
  5565     1564  00C4               	movwf	_SumData_Y
  5566     1565                     i1l2937:
  5567                           
  5568                           ;Digitizer24bitsV1.c: 323:                 ReadAD24(0,0x00);
  5569     1565  01D5               	clrf	ReadAD24@cmd_convert
  5570     1566  3000               	movlw	0
  5571     1567  160A  118A  23DE  160A  118A  	fcall	_ReadAD24
  5572     156C                     i1l2939:
  5573                           
  5574                           ;Digitizer24bitsV1.c: 324:                 for(conta=0; conta<5; conta++){
  5575     156C  1283               	bcf	3,5	;RP0=0, select bank0
  5576     156D  1303               	bcf	3,6	;RP1=0, select bank0
  5577     156E  01EB               	clrf	Interrups@conta
  5578     156F                     i1l2941:
  5579     156F  3005               	movlw	5
  5580     1570  026B               	subwf	Interrups@conta,w
  5581     1571  1C03               	skipc
  5582     1572  2D74               	goto	u110_21
  5583     1573  2D75               	goto	u110_20
  5584     1574                     u110_21:
  5585     1574  2D78               	goto	i1l2945
  5586     1575                     u110_20:
  5587     1575  160A  118A  2EC6   	goto	i1l2953
  5588     1578                     i1l2945:
  5589                           
  5590                           ;Digitizer24bitsV1.c: 325:                     Data_Y = ReadAD24(1,0x00);
  5591     1578  01D5               	clrf	ReadAD24@cmd_convert
  5592     1579  3001               	movlw	1
  5593     157A  160A  118A  23DE  160A  118A  	fcall	_ReadAD24
  5594     157F  1283               	bcf	3,5	;RP0=0, select bank0
  5595     1580  1303               	bcf	3,6	;RP1=0, select bank0
  5596     1581  0858               	movf	?_ReadAD24+3,w
  5597     1582  00B3               	movwf	_Data_Y+3
  5598     1583  0857               	movf	?_ReadAD24+2,w
  5599     1584  00B2               	movwf	_Data_Y+2
  5600     1585  0856               	movf	?_ReadAD24+1,w
  5601     1586  00B1               	movwf	_Data_Y+1
  5602     1587  0855               	movf	?_ReadAD24,w
  5603     1588  00B0               	movwf	_Data_Y
  5604     1589                     i1l2947:
  5605                           
  5606                           ;Digitizer24bitsV1.c: 326:                     SumData_Y = SumData_Y + Data_Y;
  5607     1589  0844               	movf	_SumData_Y,w
  5608     158A  0730               	addwf	_Data_Y,w
  5609     158B  00E2               	movwf	??_Interrups
  5610     158C  3000               	movlw	0
  5611     158D  1803               	skipnc
  5612     158E  3001               	movlw	1
  5613     158F  0745               	addwf	_SumData_Y+1,w
  5614     1590  01E4               	clrf	??_Interrups+2
  5615     1591  1803               	skipnc
  5616     1592  0AE4               	incf	??_Interrups+2,f
  5617     1593  0731               	addwf	_Data_Y+1,w
  5618     1594  00E3               	movwf	??_Interrups+1
  5619     1595  1803               	skipnc
  5620     1596  0AE4               	incf	??_Interrups+2,f
  5621     1597  0846               	movf	_SumData_Y+2,w
  5622     1598  0764               	addwf	??_Interrups+2,w
  5623     1599  01E5               	clrf	??_Interrups+3
  5624     159A  1803               	skipnc
  5625     159B  0AE5               	incf	??_Interrups+3,f
  5626     159C  0732               	addwf	_Data_Y+2,w
  5627     159D  00E4               	movwf	??_Interrups+2
  5628     159E  1803               	skipnc
  5629     159F  0AE5               	incf	??_Interrups+3,f
  5630     15A0  0847               	movf	_SumData_Y+3,w
  5631     15A1  0765               	addwf	??_Interrups+3,w
  5632     15A2  0733               	addwf	_Data_Y+3,w
  5633     15A3  00E5               	movwf	??_Interrups+3
  5634     15A4  0865               	movf	??_Interrups+3,w
  5635     15A5  00C7               	movwf	_SumData_Y+3
  5636     15A6  0864               	movf	??_Interrups+2,w
  5637     15A7  00C6               	movwf	_SumData_Y+2
  5638     15A8  0863               	movf	??_Interrups+1,w
  5639     15A9  00C5               	movwf	_SumData_Y+1
  5640     15AA  0862               	movf	??_Interrups,w
  5641     15AB  00C4               	movwf	_SumData_Y
  5642     15AC                     i1l2949:
  5643                           
  5644                           ;Digitizer24bitsV1.c: 327:                 }
  5645     15AC  3001               	movlw	1
  5646     15AD  00FF               	movwf	btemp+1
  5647     15AE  087F               	movf	btemp+1,w
  5648     15AF  07EB               	addwf	Interrups@conta,f
  5649     15B0  2D6F               	goto	i1l2941
  5650                           
  5651                           	psect	text7_split_6
  5652     16C6                     i1l2953:
  5653                           
  5654                           ;Digitizer24bitsV1.c: 329:                 CleanHolding();
  5655     16C6  160A  118A  212B  160A  118A  	fcall	_CleanHolding
  5656     16CB                     i1l2955:
  5657                           
  5658                           ;Digitizer24bitsV1.c: 331:                 PORTB = 0x28;
  5659     16CB  3028               	movlw	40
  5660     16CC  1283               	bcf	3,5	;RP0=0, select bank0
  5661     16CD  1303               	bcf	3,6	;RP1=0, select bank0
  5662     16CE  0086               	movwf	6	;volatile
  5663     16CF                     i1l2957:
  5664                           
  5665                           ;Digitizer24bitsV1.c: 332:                 _delay((unsigned long)((7)*(9830400UL/4000.0)
      +                          ));
  5666     16CF  3017               	movlw	23
  5667     16D0  1283               	bcf	3,5	;RP0=0, select bank0
  5668     16D1  1303               	bcf	3,6	;RP1=0, select bank0
  5669     16D2  00E3               	movwf	??_Interrups+1
  5670     16D3  3055               	movlw	85
  5671     16D4  00E2               	movwf	??_Interrups
  5672     16D5                     u141_27:
  5673     16D5  0BE2               	decfsz	??_Interrups,f
  5674     16D6  2ED5               	goto	u141_27
  5675     16D7  0BE3               	decfsz	??_Interrups+1,f
  5676     16D8  2ED5               	goto	u141_27
  5677     16D9  0000               	nop
  5678     16DA                     i1l2959:
  5679                           
  5680                           ;Digitizer24bitsV1.c: 333:                 SumData_Z = 0;
  5681     16DA  3000               	movlw	0
  5682     16DB  1283               	bcf	3,5	;RP0=0, select bank0
  5683     16DC  1303               	bcf	3,6	;RP1=0, select bank0
  5684     16DD  00C3               	movwf	_SumData_Z+3
  5685     16DE  3000               	movlw	0
  5686     16DF  00C2               	movwf	_SumData_Z+2
  5687     16E0  3000               	movlw	0
  5688     16E1  00C1               	movwf	_SumData_Z+1
  5689     16E2  3000               	movlw	0
  5690     16E3  00C0               	movwf	_SumData_Z
  5691     16E4                     i1l2961:
  5692                           
  5693                           ;Digitizer24bitsV1.c: 334:                 ReadAD24(0,0x00);
  5694     16E4  01D5               	clrf	ReadAD24@cmd_convert
  5695     16E5  3000               	movlw	0
  5696     16E6  160A  118A  23DE  160A  118A  	fcall	_ReadAD24
  5697     16EB                     i1l2963:
  5698                           
  5699                           ;Digitizer24bitsV1.c: 335:                 for(conta=0; conta<5; conta++){
  5700     16EB  1283               	bcf	3,5	;RP0=0, select bank0
  5701     16EC  1303               	bcf	3,6	;RP1=0, select bank0
  5702     16ED  01EB               	clrf	Interrups@conta
  5703     16EE                     i1l2965:
  5704     16EE  3005               	movlw	5
  5705     16EF  026B               	subwf	Interrups@conta,w
  5706     16F0  1C03               	skipc
  5707     16F1  2EF3               	goto	u111_21
  5708     16F2  2EF4               	goto	u111_20
  5709     16F3                     u111_21:
  5710     16F3  2EF5               	goto	i1l2969
  5711     16F4                     u111_20:
  5712     16F4  2F2E               	goto	i1l2977
  5713     16F5                     i1l2969:
  5714                           
  5715                           ;Digitizer24bitsV1.c: 336:                     Data_Z = ReadAD24(1,0x00);
  5716     16F5  01D5               	clrf	ReadAD24@cmd_convert
  5717     16F6  3001               	movlw	1
  5718     16F7  160A  118A  23DE  160A  118A  	fcall	_ReadAD24
  5719     16FC  1283               	bcf	3,5	;RP0=0, select bank0
  5720     16FD  1303               	bcf	3,6	;RP1=0, select bank0
  5721     16FE  0858               	movf	?_ReadAD24+3,w
  5722     16FF  00AF               	movwf	_Data_Z+3
  5723     1700  0857               	movf	?_ReadAD24+2,w
  5724     1701  00AE               	movwf	_Data_Z+2
  5725     1702  0856               	movf	?_ReadAD24+1,w
  5726     1703  00AD               	movwf	_Data_Z+1
  5727     1704  0855               	movf	?_ReadAD24,w
  5728     1705  00AC               	movwf	_Data_Z
  5729     1706                     i1l2971:
  5730                           
  5731                           ;Digitizer24bitsV1.c: 337:                     SumData_Z = SumData_Z + Data_Z;
  5732     1706  0840               	movf	_SumData_Z,w
  5733     1707  072C               	addwf	_Data_Z,w
  5734     1708  00E2               	movwf	??_Interrups
  5735     1709  3000               	movlw	0
  5736     170A  1803               	skipnc
  5737     170B  3001               	movlw	1
  5738     170C  0741               	addwf	_SumData_Z+1,w
  5739     170D  01E4               	clrf	??_Interrups+2
  5740     170E  1803               	skipnc
  5741     170F  0AE4               	incf	??_Interrups+2,f
  5742     1710  072D               	addwf	_Data_Z+1,w
  5743     1711  00E3               	movwf	??_Interrups+1
  5744     1712  1803               	skipnc
  5745     1713  0AE4               	incf	??_Interrups+2,f
  5746     1714  0842               	movf	_SumData_Z+2,w
  5747     1715  0764               	addwf	??_Interrups+2,w
  5748     1716  01E5               	clrf	??_Interrups+3
  5749     1717  1803               	skipnc
  5750     1718  0AE5               	incf	??_Interrups+3,f
  5751     1719  072E               	addwf	_Data_Z+2,w
  5752     171A  00E4               	movwf	??_Interrups+2
  5753     171B  1803               	skipnc
  5754     171C  0AE5               	incf	??_Interrups+3,f
  5755     171D  0843               	movf	_SumData_Z+3,w
  5756     171E  0765               	addwf	??_Interrups+3,w
  5757     171F  072F               	addwf	_Data_Z+3,w
  5758     1720  00E5               	movwf	??_Interrups+3
  5759     1721  0865               	movf	??_Interrups+3,w
  5760     1722  00C3               	movwf	_SumData_Z+3
  5761     1723  0864               	movf	??_Interrups+2,w
  5762     1724  00C2               	movwf	_SumData_Z+2
  5763     1725  0863               	movf	??_Interrups+1,w
  5764     1726  00C1               	movwf	_SumData_Z+1
  5765     1727  0862               	movf	??_Interrups,w
  5766     1728  00C0               	movwf	_SumData_Z
  5767     1729                     i1l2973:
  5768                           
  5769                           ;Digitizer24bitsV1.c: 338:                 }
  5770     1729  3001               	movlw	1
  5771     172A  00FF               	movwf	btemp+1
  5772     172B  087F               	movf	btemp+1,w
  5773     172C  07EB               	addwf	Interrups@conta,f
  5774     172D  2EEE               	goto	i1l2965
  5775     172E                     i1l2977:
  5776                           
  5777                           ;Digitizer24bitsV1.c: 340:                 CleanHolding();
  5778     172E  160A  118A  212B  160A  118A  	fcall	_CleanHolding
  5779     1733                     i1l2979:
  5780                           
  5781                           ;Digitizer24bitsV1.c: 342:                 PORTB = 0x08;
  5782     1733  3008               	movlw	8
  5783     1734  1283               	bcf	3,5	;RP0=0, select bank0
  5784     1735  1303               	bcf	3,6	;RP1=0, select bank0
  5785     1736  0086               	movwf	6	;volatile
  5786     1737                     i1l2981:
  5787                           
  5788                           ;Digitizer24bitsV1.c: 343:                 _delay((unsigned long)((7)*(9830400UL/4000.0)
      +                          ));
  5789     1737  3017               	movlw	23
  5790     1738  1283               	bcf	3,5	;RP0=0, select bank0
  5791     1739  1303               	bcf	3,6	;RP1=0, select bank0
  5792     173A  00E3               	movwf	??_Interrups+1
  5793     173B  3055               	movlw	85
  5794     173C  00E2               	movwf	??_Interrups
  5795     173D                     u142_27:
  5796     173D  0BE2               	decfsz	??_Interrups,f
  5797     173E  2F3D               	goto	u142_27
  5798     173F  0BE3               	decfsz	??_Interrups+1,f
  5799     1740  2F3D               	goto	u142_27
  5800     1741  0000               	nop
  5801     1742                     i1l2983:
  5802                           
  5803                           ;Digitizer24bitsV1.c: 344:                 SumData_TC = 0;
  5804     1742  3000               	movlw	0
  5805     1743  1283               	bcf	3,5	;RP0=0, select bank0
  5806     1744  1303               	bcf	3,6	;RP1=0, select bank0
  5807     1745  00BF               	movwf	_SumData_TC+3
  5808     1746  3000               	movlw	0
  5809     1747  00BE               	movwf	_SumData_TC+2
  5810     1748  3000               	movlw	0
  5811     1749  00BD               	movwf	_SumData_TC+1
  5812     174A  3000               	movlw	0
  5813     174B  00BC               	movwf	_SumData_TC
  5814     174C                     i1l2985:
  5815                           
  5816                           ;Digitizer24bitsV1.c: 345:                 ReadAD24(0,0x00);
  5817     174C  01D5               	clrf	ReadAD24@cmd_convert
  5818     174D  3000               	movlw	0
  5819     174E  160A  118A  23DE  160A  118A  	fcall	_ReadAD24
  5820     1753                     i1l2987:
  5821                           
  5822                           ;Digitizer24bitsV1.c: 346:                 for(conta=0; conta<5; conta++){
  5823     1753  1283               	bcf	3,5	;RP0=0, select bank0
  5824     1754  1303               	bcf	3,6	;RP1=0, select bank0
  5825     1755  01EB               	clrf	Interrups@conta
  5826     1756                     i1l2989:
  5827     1756  3005               	movlw	5
  5828     1757  026B               	subwf	Interrups@conta,w
  5829     1758  1C03               	skipc
  5830     1759  2F5B               	goto	u112_21
  5831     175A  2F5C               	goto	u112_20
  5832     175B                     u112_21:
  5833     175B  2F5D               	goto	i1l2993
  5834     175C                     u112_20:
  5835     175C  2F96               	goto	i1l3001
  5836     175D                     i1l2993:
  5837                           
  5838                           ;Digitizer24bitsV1.c: 347:                     Data_TC = ReadAD24(1,0x00);
  5839     175D  01D5               	clrf	ReadAD24@cmd_convert
  5840     175E  3001               	movlw	1
  5841     175F  160A  118A  23DE  160A  118A  	fcall	_ReadAD24
  5842     1764  1283               	bcf	3,5	;RP0=0, select bank0
  5843     1765  1303               	bcf	3,6	;RP1=0, select bank0
  5844     1766  0858               	movf	?_ReadAD24+3,w
  5845     1767  00AB               	movwf	_Data_TC+3
  5846     1768  0857               	movf	?_ReadAD24+2,w
  5847     1769  00AA               	movwf	_Data_TC+2
  5848     176A  0856               	movf	?_ReadAD24+1,w
  5849     176B  00A9               	movwf	_Data_TC+1
  5850     176C  0855               	movf	?_ReadAD24,w
  5851     176D  00A8               	movwf	_Data_TC
  5852     176E                     i1l2995:
  5853                           
  5854                           ;Digitizer24bitsV1.c: 348:                     SumData_TC = SumData_TC + Data_TC;
  5855     176E  083C               	movf	_SumData_TC,w
  5856     176F  0728               	addwf	_Data_TC,w
  5857     1770  00E2               	movwf	??_Interrups
  5858     1771  3000               	movlw	0
  5859     1772  1803               	skipnc
  5860     1773  3001               	movlw	1
  5861     1774  073D               	addwf	_SumData_TC+1,w
  5862     1775  01E4               	clrf	??_Interrups+2
  5863     1776  1803               	skipnc
  5864     1777  0AE4               	incf	??_Interrups+2,f
  5865     1778  0729               	addwf	_Data_TC+1,w
  5866     1779  00E3               	movwf	??_Interrups+1
  5867     177A  1803               	skipnc
  5868     177B  0AE4               	incf	??_Interrups+2,f
  5869     177C  083E               	movf	_SumData_TC+2,w
  5870     177D  0764               	addwf	??_Interrups+2,w
  5871     177E  01E5               	clrf	??_Interrups+3
  5872     177F  1803               	skipnc
  5873     1780  0AE5               	incf	??_Interrups+3,f
  5874     1781  072A               	addwf	_Data_TC+2,w
  5875     1782  00E4               	movwf	??_Interrups+2
  5876     1783  1803               	skipnc
  5877     1784  0AE5               	incf	??_Interrups+3,f
  5878     1785  083F               	movf	_SumData_TC+3,w
  5879     1786  0765               	addwf	??_Interrups+3,w
  5880     1787  072B               	addwf	_Data_TC+3,w
  5881     1788  00E5               	movwf	??_Interrups+3
  5882     1789  0865               	movf	??_Interrups+3,w
  5883     178A  00BF               	movwf	_SumData_TC+3
  5884     178B  0864               	movf	??_Interrups+2,w
  5885     178C  00BE               	movwf	_SumData_TC+2
  5886     178D  0863               	movf	??_Interrups+1,w
  5887     178E  00BD               	movwf	_SumData_TC+1
  5888     178F  0862               	movf	??_Interrups,w
  5889     1790  00BC               	movwf	_SumData_TC
  5890     1791                     i1l2997:
  5891                           
  5892                           ;Digitizer24bitsV1.c: 349:                 }
  5893     1791  3001               	movlw	1
  5894     1792  00FF               	movwf	btemp+1
  5895     1793  087F               	movf	btemp+1,w
  5896     1794  07EB               	addwf	Interrups@conta,f
  5897     1795  2F56               	goto	i1l2989
  5898     1796                     i1l3001:
  5899                           
  5900                           ;Digitizer24bitsV1.c: 351:                 CleanHolding();
  5901     1796  160A  118A  212B  160A  118A  	fcall	_CleanHolding
  5902     179B                     i1l3003:
  5903                           
  5904                           ;Digitizer24bitsV1.c: 353:                 PORTB = 0x04;
  5905     179B  3004               	movlw	4
  5906     179C  1283               	bcf	3,5	;RP0=0, select bank0
  5907     179D  1303               	bcf	3,6	;RP1=0, select bank0
  5908     179E  0086               	movwf	6	;volatile
  5909     179F                     i1l3005:
  5910                           
  5911                           ;Digitizer24bitsV1.c: 354:                 _delay((unsigned long)((7)*(9830400UL/4000.0)
      +                          ));
  5912     179F  3017               	movlw	23
  5913     17A0  1283               	bcf	3,5	;RP0=0, select bank0
  5914     17A1  1303               	bcf	3,6	;RP1=0, select bank0
  5915     17A2  00E3               	movwf	??_Interrups+1
  5916     17A3  3055               	movlw	85
  5917     17A4  00E2               	movwf	??_Interrups
  5918     17A5                     u143_27:
  5919     17A5  0BE2               	decfsz	??_Interrups,f
  5920     17A6  2FA5               	goto	u143_27
  5921     17A7  0BE3               	decfsz	??_Interrups+1,f
  5922     17A8  2FA5               	goto	u143_27
  5923     17A9  0000               	nop
  5924     17AA                     i1l3007:
  5925                           
  5926                           ;Digitizer24bitsV1.c: 355:                 SumData_TS = 0;
  5927     17AA  3000               	movlw	0
  5928     17AB  1283               	bcf	3,5	;RP0=0, select bank0
  5929     17AC  1303               	bcf	3,6	;RP1=0, select bank0
  5930     17AD  00BB               	movwf	_SumData_TS+3
  5931     17AE  3000               	movlw	0
  5932     17AF  00BA               	movwf	_SumData_TS+2
  5933     17B0  3000               	movlw	0
  5934     17B1  00B9               	movwf	_SumData_TS+1
  5935     17B2  3000               	movlw	0
  5936     17B3  00B8               	movwf	_SumData_TS
  5937     17B4                     i1l3009:
  5938                           
  5939                           ;Digitizer24bitsV1.c: 356:                 ReadAD24(0,0x00);
  5940     17B4  01D5               	clrf	ReadAD24@cmd_convert
  5941     17B5  3000               	movlw	0
  5942     17B6  160A  118A  23DE  160A  118A  	fcall	_ReadAD24
  5943     17BB                     i1l3011:
  5944                           
  5945                           ;Digitizer24bitsV1.c: 357:                 for(conta=0; conta<5; conta++){
  5946     17BB  1283               	bcf	3,5	;RP0=0, select bank0
  5947     17BC  1303               	bcf	3,6	;RP1=0, select bank0
  5948     17BD  01EB               	clrf	Interrups@conta
  5949     17BE                     i1l3013:
  5950     17BE  3005               	movlw	5
  5951     17BF  026B               	subwf	Interrups@conta,w
  5952     17C0  1C03               	skipc
  5953     17C1  2FC3               	goto	u113_21
  5954     17C2  2FC4               	goto	u113_20
  5955     17C3                     u113_21:
  5956     17C3  2FC7               	goto	i1l3017
  5957     17C4                     u113_20:
  5958     17C4  120A  158A  2CA4   	goto	i1l3025
  5959     17C7                     i1l3017:
  5960                           
  5961                           ;Digitizer24bitsV1.c: 358:                     Data_TS = ReadAD24(1,0x00);
  5962     17C7  01D5               	clrf	ReadAD24@cmd_convert
  5963     17C8  3001               	movlw	1
  5964     17C9  160A  118A  23DE  160A  118A  	fcall	_ReadAD24
  5965     17CE  1283               	bcf	3,5	;RP0=0, select bank0
  5966     17CF  1303               	bcf	3,6	;RP1=0, select bank0
  5967     17D0  0858               	movf	?_ReadAD24+3,w
  5968     17D1  00A7               	movwf	_Data_TS+3
  5969     17D2  0857               	movf	?_ReadAD24+2,w
  5970     17D3  00A6               	movwf	_Data_TS+2
  5971     17D4  0856               	movf	?_ReadAD24+1,w
  5972     17D5  00A5               	movwf	_Data_TS+1
  5973     17D6  0855               	movf	?_ReadAD24,w
  5974     17D7  00A4               	movwf	_Data_TS
  5975     17D8                     i1l3019:
  5976                           
  5977                           ;Digitizer24bitsV1.c: 359:                     SumData_TS = SumData_TS + Data_TS;
  5978     17D8  0838               	movf	_SumData_TS,w
  5979     17D9  0724               	addwf	_Data_TS,w
  5980     17DA  00E2               	movwf	??_Interrups
  5981     17DB  3000               	movlw	0
  5982     17DC  1803               	skipnc
  5983     17DD  3001               	movlw	1
  5984     17DE  0739               	addwf	_SumData_TS+1,w
  5985     17DF  01E4               	clrf	??_Interrups+2
  5986     17E0  1803               	skipnc
  5987     17E1  0AE4               	incf	??_Interrups+2,f
  5988     17E2  0725               	addwf	_Data_TS+1,w
  5989     17E3  00E3               	movwf	??_Interrups+1
  5990     17E4  1803               	skipnc
  5991     17E5  0AE4               	incf	??_Interrups+2,f
  5992     17E6  083A               	movf	_SumData_TS+2,w
  5993     17E7  0764               	addwf	??_Interrups+2,w
  5994     17E8  01E5               	clrf	??_Interrups+3
  5995     17E9  1803               	skipnc
  5996     17EA  0AE5               	incf	??_Interrups+3,f
  5997     17EB  0726               	addwf	_Data_TS+2,w
  5998     17EC  00E4               	movwf	??_Interrups+2
  5999     17ED  1803               	skipnc
  6000     17EE  0AE5               	incf	??_Interrups+3,f
  6001     17EF  083B               	movf	_SumData_TS+3,w
  6002     17F0  0765               	addwf	??_Interrups+3,w
  6003     17F1  0727               	addwf	_Data_TS+3,w
  6004     17F2  00E5               	movwf	??_Interrups+3
  6005     17F3  0865               	movf	??_Interrups+3,w
  6006     17F4  00BB               	movwf	_SumData_TS+3
  6007     17F5  0864               	movf	??_Interrups+2,w
  6008     17F6  00BA               	movwf	_SumData_TS+2
  6009     17F7  0863               	movf	??_Interrups+1,w
  6010     17F8  00B9               	movwf	_SumData_TS+1
  6011     17F9  0862               	movf	??_Interrups,w
  6012     17FA  00B8               	movwf	_SumData_TS
  6013     17FB                     i1l3021:
  6014                           
  6015                           ;Digitizer24bitsV1.c: 360:                 }
  6016     17FB  3001               	movlw	1
  6017     17FC  00FF               	movwf	btemp+1
  6018     17FD  087F               	movf	btemp+1,w
  6019     17FE  07EB               	addwf	Interrups@conta,f
  6020     17FF  2FBE               	goto	i1l3013
  6021                           
  6022                           	psect	text7_split_7
  6023     0CA4                     i1l3025:
  6024                           
  6025                           ;Digitizer24bitsV1.c: 362:                 CleanHolding();
  6026     0CA4  160A  118A  212B  120A  158A  	fcall	_CleanHolding
  6027     0CA9                     i1l3027:
  6028                           
  6029                           ;Digitizer24bitsV1.c: 364:                 PORTB = 0x34;
  6030     0CA9  3034               	movlw	52
  6031     0CAA  1283               	bcf	3,5	;RP0=0, select bank0
  6032     0CAB  1303               	bcf	3,6	;RP1=0, select bank0
  6033     0CAC  0086               	movwf	6	;volatile
  6034     0CAD                     i1l3029:
  6035                           
  6036                           ;Digitizer24bitsV1.c: 365:                 _delay((unsigned long)((7)*(9830400UL/4000.0)
      +                          ));
  6037     0CAD  3017               	movlw	23
  6038     0CAE  1283               	bcf	3,5	;RP0=0, select bank0
  6039     0CAF  1303               	bcf	3,6	;RP1=0, select bank0
  6040     0CB0  00E3               	movwf	??_Interrups+1
  6041     0CB1  3055               	movlw	85
  6042     0CB2  00E2               	movwf	??_Interrups
  6043     0CB3                     u144_27:
  6044     0CB3  0BE2               	decfsz	??_Interrups,f
  6045     0CB4  2CB3               	goto	u144_27
  6046     0CB5  0BE3               	decfsz	??_Interrups+1,f
  6047     0CB6  2CB3               	goto	u144_27
  6048     0CB7  0000               	nop
  6049     0CB8                     i1l3031:
  6050                           
  6051                           ;Digitizer24bitsV1.c: 366:                 SumData_AUX0 = 0;
  6052     0CB8  3000               	movlw	0
  6053     0CB9  1283               	bcf	3,5	;RP0=0, select bank0
  6054     0CBA  1303               	bcf	3,6	;RP1=0, select bank0
  6055     0CBB  00A3               	movwf	_SumData_AUX0+3
  6056     0CBC  3000               	movlw	0
  6057     0CBD  00A2               	movwf	_SumData_AUX0+2
  6058     0CBE  3000               	movlw	0
  6059     0CBF  00A1               	movwf	_SumData_AUX0+1
  6060     0CC0  3000               	movlw	0
  6061     0CC1  00A0               	movwf	_SumData_AUX0
  6062     0CC2                     i1l3033:
  6063                           
  6064                           ;Digitizer24bitsV1.c: 367:                 ReadAD24(0,0x00);
  6065     0CC2  01D5               	clrf	ReadAD24@cmd_convert
  6066     0CC3  3000               	movlw	0
  6067     0CC4  160A  118A  23DE  120A  158A  	fcall	_ReadAD24
  6068     0CC9                     i1l3035:
  6069                           
  6070                           ;Digitizer24bitsV1.c: 368:                 for(conta=0; conta<5; conta++){
  6071     0CC9  1283               	bcf	3,5	;RP0=0, select bank0
  6072     0CCA  1303               	bcf	3,6	;RP1=0, select bank0
  6073     0CCB  01EB               	clrf	Interrups@conta
  6074     0CCC                     i1l3037:
  6075     0CCC  3005               	movlw	5
  6076     0CCD  026B               	subwf	Interrups@conta,w
  6077     0CCE  1C03               	skipc
  6078     0CCF  2CD1               	goto	u114_21
  6079     0CD0  2CD2               	goto	u114_20
  6080     0CD1                     u114_21:
  6081     0CD1  2CD3               	goto	i1l3041
  6082     0CD2                     u114_20:
  6083     0CD2  2D2C               	goto	i1l3049
  6084     0CD3                     i1l3041:
  6085                           
  6086                           ;Digitizer24bitsV1.c: 369:                     Data_AUX0 = ReadAD24(1,0x00);
  6087     0CD3  01D5               	clrf	ReadAD24@cmd_convert
  6088     0CD4  3001               	movlw	1
  6089     0CD5  160A  118A  23DE  120A  158A  	fcall	_ReadAD24
  6090     0CDA  1283               	bcf	3,5	;RP0=0, select bank0
  6091     0CDB  1303               	bcf	3,6	;RP1=0, select bank0
  6092     0CDC  0858               	movf	?_ReadAD24+3,w
  6093     0CDD  1683               	bsf	3,5	;RP0=1, select bank1
  6094     0CDE  1303               	bcf	3,6	;RP1=0, select bank1
  6095     0CDF  00AB               	movwf	(_Data_AUX0+3)^(0+128)
  6096     0CE0  1283               	bcf	3,5	;RP0=0, select bank0
  6097     0CE1  1303               	bcf	3,6	;RP1=0, select bank0
  6098     0CE2  0857               	movf	?_ReadAD24+2,w
  6099     0CE3  1683               	bsf	3,5	;RP0=1, select bank1
  6100     0CE4  1303               	bcf	3,6	;RP1=0, select bank1
  6101     0CE5  00AA               	movwf	(_Data_AUX0+2)^(0+128)
  6102     0CE6  1283               	bcf	3,5	;RP0=0, select bank0
  6103     0CE7  1303               	bcf	3,6	;RP1=0, select bank0
  6104     0CE8  0856               	movf	?_ReadAD24+1,w
  6105     0CE9  1683               	bsf	3,5	;RP0=1, select bank1
  6106     0CEA  1303               	bcf	3,6	;RP1=0, select bank1
  6107     0CEB  00A9               	movwf	(_Data_AUX0+1)^(0+128)
  6108     0CEC  1283               	bcf	3,5	;RP0=0, select bank0
  6109     0CED  1303               	bcf	3,6	;RP1=0, select bank0
  6110     0CEE  0855               	movf	?_ReadAD24,w
  6111     0CEF  1683               	bsf	3,5	;RP0=1, select bank1
  6112     0CF0  1303               	bcf	3,6	;RP1=0, select bank1
  6113     0CF1  00A8               	movwf	_Data_AUX0^(0+128)
  6114     0CF2                     i1l3043:
  6115                           
  6116                           ;Digitizer24bitsV1.c: 370:                     SumData_AUX0 = SumData_AUX0 + Data_AUX0;
  6117     0CF2  1283               	bcf	3,5	;RP0=0, select bank0
  6118     0CF3  1303               	bcf	3,6	;RP1=0, select bank0
  6119     0CF4  0820               	movf	_SumData_AUX0,w
  6120     0CF5  1683               	bsf	3,5	;RP0=1, select bank1
  6121     0CF6  1303               	bcf	3,6	;RP1=0, select bank1
  6122     0CF7  0728               	addwf	_Data_AUX0^(0+128),w
  6123     0CF8  1283               	bcf	3,5	;RP0=0, select bank0
  6124     0CF9  1303               	bcf	3,6	;RP1=0, select bank0
  6125     0CFA  00E2               	movwf	??_Interrups
  6126     0CFB  3000               	movlw	0
  6127     0CFC  1803               	skipnc
  6128     0CFD  3001               	movlw	1
  6129     0CFE  0721               	addwf	_SumData_AUX0+1,w
  6130     0CFF  01E4               	clrf	??_Interrups+2
  6131     0D00  1803               	skipnc
  6132     0D01  0AE4               	incf	??_Interrups+2,f
  6133     0D02  1683               	bsf	3,5	;RP0=1, select bank1
  6134     0D03  1303               	bcf	3,6	;RP1=0, select bank1
  6135     0D04  0729               	addwf	(_Data_AUX0+1)^(0+128),w
  6136     0D05  1283               	bcf	3,5	;RP0=0, select bank0
  6137     0D06  1303               	bcf	3,6	;RP1=0, select bank0
  6138     0D07  00E3               	movwf	??_Interrups+1
  6139     0D08  1803               	skipnc
  6140     0D09  0AE4               	incf	??_Interrups+2,f
  6141     0D0A  0822               	movf	_SumData_AUX0+2,w
  6142     0D0B  0764               	addwf	??_Interrups+2,w
  6143     0D0C  01E5               	clrf	??_Interrups+3
  6144     0D0D  1803               	skipnc
  6145     0D0E  0AE5               	incf	??_Interrups+3,f
  6146     0D0F  1683               	bsf	3,5	;RP0=1, select bank1
  6147     0D10  1303               	bcf	3,6	;RP1=0, select bank1
  6148     0D11  072A               	addwf	(_Data_AUX0+2)^(0+128),w
  6149     0D12  1283               	bcf	3,5	;RP0=0, select bank0
  6150     0D13  1303               	bcf	3,6	;RP1=0, select bank0
  6151     0D14  00E4               	movwf	??_Interrups+2
  6152     0D15  1803               	skipnc
  6153     0D16  0AE5               	incf	??_Interrups+3,f
  6154     0D17  0823               	movf	_SumData_AUX0+3,w
  6155     0D18  0765               	addwf	??_Interrups+3,w
  6156     0D19  1683               	bsf	3,5	;RP0=1, select bank1
  6157     0D1A  1303               	bcf	3,6	;RP1=0, select bank1
  6158     0D1B  072B               	addwf	(_Data_AUX0+3)^(0+128),w
  6159     0D1C  1283               	bcf	3,5	;RP0=0, select bank0
  6160     0D1D  1303               	bcf	3,6	;RP1=0, select bank0
  6161     0D1E  00E5               	movwf	??_Interrups+3
  6162     0D1F  0865               	movf	??_Interrups+3,w
  6163     0D20  00A3               	movwf	_SumData_AUX0+3
  6164     0D21  0864               	movf	??_Interrups+2,w
  6165     0D22  00A2               	movwf	_SumData_AUX0+2
  6166     0D23  0863               	movf	??_Interrups+1,w
  6167     0D24  00A1               	movwf	_SumData_AUX0+1
  6168     0D25  0862               	movf	??_Interrups,w
  6169     0D26  00A0               	movwf	_SumData_AUX0
  6170     0D27                     i1l3045:
  6171                           
  6172                           ;Digitizer24bitsV1.c: 371:                 }
  6173     0D27  3001               	movlw	1
  6174     0D28  00FF               	movwf	btemp+1
  6175     0D29  087F               	movf	btemp+1,w
  6176     0D2A  07EB               	addwf	Interrups@conta,f
  6177     0D2B  2CCC               	goto	i1l3037
  6178     0D2C                     i1l3049:
  6179                           
  6180                           ;Digitizer24bitsV1.c: 373:                 CleanHolding();
  6181     0D2C  160A  118A  212B  120A  158A  	fcall	_CleanHolding
  6182     0D31                     i1l3051:
  6183                           
  6184                           ;Digitizer24bitsV1.c: 375:                 PORTB = 0x14;
  6185     0D31  3014               	movlw	20
  6186     0D32  1283               	bcf	3,5	;RP0=0, select bank0
  6187     0D33  1303               	bcf	3,6	;RP1=0, select bank0
  6188     0D34  0086               	movwf	6	;volatile
  6189     0D35                     i1l3053:
  6190                           
  6191                           ;Digitizer24bitsV1.c: 376:                 _delay((unsigned long)((7)*(9830400UL/4000.0)
      +                          ));
  6192     0D35  3017               	movlw	23
  6193     0D36  1283               	bcf	3,5	;RP0=0, select bank0
  6194     0D37  1303               	bcf	3,6	;RP1=0, select bank0
  6195     0D38  00E3               	movwf	??_Interrups+1
  6196     0D39  3055               	movlw	85
  6197     0D3A  00E2               	movwf	??_Interrups
  6198     0D3B                     u145_27:
  6199     0D3B  0BE2               	decfsz	??_Interrups,f
  6200     0D3C  2D3B               	goto	u145_27
  6201     0D3D  0BE3               	decfsz	??_Interrups+1,f
  6202     0D3E  2D3B               	goto	u145_27
  6203     0D3F  0000               	nop
  6204     0D40                     i1l3055:
  6205                           
  6206                           ;Digitizer24bitsV1.c: 377:                 SumData_AUX1 = 0;
  6207     0D40  3000               	movlw	0
  6208     0D41  1683               	bsf	3,5	;RP0=1, select bank1
  6209     0D42  1303               	bcf	3,6	;RP1=0, select bank1
  6210     0D43  00B3               	movwf	(_SumData_AUX1+3)^(0+128)
  6211     0D44  3000               	movlw	0
  6212     0D45  00B2               	movwf	(_SumData_AUX1+2)^(0+128)
  6213     0D46  3000               	movlw	0
  6214     0D47  00B1               	movwf	(_SumData_AUX1+1)^(0+128)
  6215     0D48  3000               	movlw	0
  6216     0D49  00B0               	movwf	_SumData_AUX1^(0+128)
  6217     0D4A                     i1l3057:
  6218                           
  6219                           ;Digitizer24bitsV1.c: 378:                 ReadAD24(0,0x00);
  6220     0D4A  1283               	bcf	3,5	;RP0=0, select bank0
  6221     0D4B  1303               	bcf	3,6	;RP1=0, select bank0
  6222     0D4C  01D5               	clrf	ReadAD24@cmd_convert
  6223     0D4D  3000               	movlw	0
  6224     0D4E  160A  118A  23DE  120A  158A  	fcall	_ReadAD24
  6225     0D53                     i1l3059:
  6226                           
  6227                           ;Digitizer24bitsV1.c: 379:                 for(conta=0; conta<5; conta++){
  6228     0D53  1283               	bcf	3,5	;RP0=0, select bank0
  6229     0D54  1303               	bcf	3,6	;RP1=0, select bank0
  6230     0D55  01EB               	clrf	Interrups@conta
  6231     0D56                     i1l3061:
  6232     0D56  3005               	movlw	5
  6233     0D57  026B               	subwf	Interrups@conta,w
  6234     0D58  1C03               	skipc
  6235     0D59  2D5B               	goto	u115_21
  6236     0D5A  2D5C               	goto	u115_20
  6237     0D5B                     u115_21:
  6238     0D5B  2D5D               	goto	i1l3065
  6239     0D5C                     u115_20:
  6240     0D5C  2DCE               	goto	i1l3073
  6241     0D5D                     i1l3065:
  6242                           
  6243                           ;Digitizer24bitsV1.c: 380:                     Data_AUX1 = ReadAD24(1,0x00);
  6244     0D5D  01D5               	clrf	ReadAD24@cmd_convert
  6245     0D5E  3001               	movlw	1
  6246     0D5F  160A  118A  23DE  120A  158A  	fcall	_ReadAD24
  6247     0D64  1283               	bcf	3,5	;RP0=0, select bank0
  6248     0D65  1303               	bcf	3,6	;RP1=0, select bank0
  6249     0D66  0858               	movf	?_ReadAD24+3,w
  6250     0D67  1683               	bsf	3,5	;RP0=1, select bank1
  6251     0D68  1303               	bcf	3,6	;RP1=0, select bank1
  6252     0D69  00A7               	movwf	(_Data_AUX1+3)^(0+128)
  6253     0D6A  1283               	bcf	3,5	;RP0=0, select bank0
  6254     0D6B  1303               	bcf	3,6	;RP1=0, select bank0
  6255     0D6C  0857               	movf	?_ReadAD24+2,w
  6256     0D6D  1683               	bsf	3,5	;RP0=1, select bank1
  6257     0D6E  1303               	bcf	3,6	;RP1=0, select bank1
  6258     0D6F  00A6               	movwf	(_Data_AUX1+2)^(0+128)
  6259     0D70  1283               	bcf	3,5	;RP0=0, select bank0
  6260     0D71  1303               	bcf	3,6	;RP1=0, select bank0
  6261     0D72  0856               	movf	?_ReadAD24+1,w
  6262     0D73  1683               	bsf	3,5	;RP0=1, select bank1
  6263     0D74  1303               	bcf	3,6	;RP1=0, select bank1
  6264     0D75  00A5               	movwf	(_Data_AUX1+1)^(0+128)
  6265     0D76  1283               	bcf	3,5	;RP0=0, select bank0
  6266     0D77  1303               	bcf	3,6	;RP1=0, select bank0
  6267     0D78  0855               	movf	?_ReadAD24,w
  6268     0D79  1683               	bsf	3,5	;RP0=1, select bank1
  6269     0D7A  1303               	bcf	3,6	;RP1=0, select bank1
  6270     0D7B  00A4               	movwf	_Data_AUX1^(0+128)
  6271     0D7C                     i1l3067:
  6272                           
  6273                           ;Digitizer24bitsV1.c: 381:                     SumData_AUX1 = SumData_AUX1 + Data_AUX1;
  6274     0D7C  0830               	movf	_SumData_AUX1^(0+128),w
  6275     0D7D  0724               	addwf	_Data_AUX1^(0+128),w
  6276     0D7E  1283               	bcf	3,5	;RP0=0, select bank0
  6277     0D7F  1303               	bcf	3,6	;RP1=0, select bank0
  6278     0D80  00E2               	movwf	??_Interrups
  6279     0D81  3000               	movlw	0
  6280     0D82  1803               	skipnc
  6281     0D83  3001               	movlw	1
  6282     0D84  1683               	bsf	3,5	;RP0=1, select bank1
  6283     0D85  1303               	bcf	3,6	;RP1=0, select bank1
  6284     0D86  0731               	addwf	(_SumData_AUX1+1)^(0+128),w
  6285     0D87  1283               	bcf	3,5	;RP0=0, select bank0
  6286     0D88  1303               	bcf	3,6	;RP1=0, select bank0
  6287     0D89  01E4               	clrf	??_Interrups+2
  6288     0D8A  1803               	skipnc
  6289     0D8B  0AE4               	incf	??_Interrups+2,f
  6290     0D8C  1683               	bsf	3,5	;RP0=1, select bank1
  6291     0D8D  1303               	bcf	3,6	;RP1=0, select bank1
  6292     0D8E  0725               	addwf	(_Data_AUX1+1)^(0+128),w
  6293     0D8F  1283               	bcf	3,5	;RP0=0, select bank0
  6294     0D90  1303               	bcf	3,6	;RP1=0, select bank0
  6295     0D91  00E3               	movwf	??_Interrups+1
  6296     0D92  1803               	skipnc
  6297     0D93  0AE4               	incf	??_Interrups+2,f
  6298     0D94  1683               	bsf	3,5	;RP0=1, select bank1
  6299     0D95  1303               	bcf	3,6	;RP1=0, select bank1
  6300     0D96  0832               	movf	(_SumData_AUX1+2)^(0+128),w
  6301     0D97  1283               	bcf	3,5	;RP0=0, select bank0
  6302     0D98  1303               	bcf	3,6	;RP1=0, select bank0
  6303     0D99  0764               	addwf	??_Interrups+2,w
  6304     0D9A  01E5               	clrf	??_Interrups+3
  6305     0D9B  1803               	skipnc
  6306     0D9C  0AE5               	incf	??_Interrups+3,f
  6307     0D9D  1683               	bsf	3,5	;RP0=1, select bank1
  6308     0D9E  1303               	bcf	3,6	;RP1=0, select bank1
  6309     0D9F  0726               	addwf	(_Data_AUX1+2)^(0+128),w
  6310     0DA0  1283               	bcf	3,5	;RP0=0, select bank0
  6311     0DA1  1303               	bcf	3,6	;RP1=0, select bank0
  6312     0DA2  00E4               	movwf	??_Interrups+2
  6313     0DA3  1803               	skipnc
  6314     0DA4  0AE5               	incf	??_Interrups+3,f
  6315     0DA5  1683               	bsf	3,5	;RP0=1, select bank1
  6316     0DA6  1303               	bcf	3,6	;RP1=0, select bank1
  6317     0DA7  0833               	movf	(_SumData_AUX1+3)^(0+128),w
  6318     0DA8  1283               	bcf	3,5	;RP0=0, select bank0
  6319     0DA9  1303               	bcf	3,6	;RP1=0, select bank0
  6320     0DAA  0765               	addwf	??_Interrups+3,w
  6321     0DAB  1683               	bsf	3,5	;RP0=1, select bank1
  6322     0DAC  1303               	bcf	3,6	;RP1=0, select bank1
  6323     0DAD  0727               	addwf	(_Data_AUX1+3)^(0+128),w
  6324     0DAE  1283               	bcf	3,5	;RP0=0, select bank0
  6325     0DAF  1303               	bcf	3,6	;RP1=0, select bank0
  6326     0DB0  00E5               	movwf	??_Interrups+3
  6327     0DB1  0865               	movf	??_Interrups+3,w
  6328     0DB2  1683               	bsf	3,5	;RP0=1, select bank1
  6329     0DB3  1303               	bcf	3,6	;RP1=0, select bank1
  6330     0DB4  00B3               	movwf	(_SumData_AUX1+3)^(0+128)
  6331     0DB5  1283               	bcf	3,5	;RP0=0, select bank0
  6332     0DB6  1303               	bcf	3,6	;RP1=0, select bank0
  6333     0DB7  0864               	movf	??_Interrups+2,w
  6334     0DB8  1683               	bsf	3,5	;RP0=1, select bank1
  6335     0DB9  1303               	bcf	3,6	;RP1=0, select bank1
  6336     0DBA  00B2               	movwf	(_SumData_AUX1+2)^(0+128)
  6337     0DBB  1283               	bcf	3,5	;RP0=0, select bank0
  6338     0DBC  1303               	bcf	3,6	;RP1=0, select bank0
  6339     0DBD  0863               	movf	??_Interrups+1,w
  6340     0DBE  1683               	bsf	3,5	;RP0=1, select bank1
  6341     0DBF  1303               	bcf	3,6	;RP1=0, select bank1
  6342     0DC0  00B1               	movwf	(_SumData_AUX1+1)^(0+128)
  6343     0DC1  1283               	bcf	3,5	;RP0=0, select bank0
  6344     0DC2  1303               	bcf	3,6	;RP1=0, select bank0
  6345     0DC3  0862               	movf	??_Interrups,w
  6346     0DC4  1683               	bsf	3,5	;RP0=1, select bank1
  6347     0DC5  1303               	bcf	3,6	;RP1=0, select bank1
  6348     0DC6  00B0               	movwf	_SumData_AUX1^(0+128)
  6349     0DC7                     i1l3069:
  6350                           
  6351                           ;Digitizer24bitsV1.c: 382:                 }
  6352     0DC7  3001               	movlw	1
  6353     0DC8  00FF               	movwf	btemp+1
  6354     0DC9  087F               	movf	btemp+1,w
  6355     0DCA  1283               	bcf	3,5	;RP0=0, select bank0
  6356     0DCB  1303               	bcf	3,6	;RP1=0, select bank0
  6357     0DCC  07EB               	addwf	Interrups@conta,f
  6358     0DCD  2D56               	goto	i1l3061
  6359     0DCE                     i1l3073:
  6360                           
  6361                           ;Digitizer24bitsV1.c: 384:                 CleanHolding();
  6362     0DCE  160A  118A  212B  120A  158A  	fcall	_CleanHolding
  6363     0DD3                     i1l3075:
  6364                           
  6365                           ;Digitizer24bitsV1.c: 386:                 PORTB = 0x24;
  6366     0DD3  3024               	movlw	36
  6367     0DD4  1283               	bcf	3,5	;RP0=0, select bank0
  6368     0DD5  1303               	bcf	3,6	;RP1=0, select bank0
  6369     0DD6  0086               	movwf	6	;volatile
  6370     0DD7                     i1l3077:
  6371                           
  6372                           ;Digitizer24bitsV1.c: 387:                 _delay((unsigned long)((7)*(9830400UL/4000.0)
      +                          ));
  6373     0DD7  3017               	movlw	23
  6374     0DD8  1283               	bcf	3,5	;RP0=0, select bank0
  6375     0DD9  1303               	bcf	3,6	;RP1=0, select bank0
  6376     0DDA  00E3               	movwf	??_Interrups+1
  6377     0DDB  3055               	movlw	85
  6378     0DDC  00E2               	movwf	??_Interrups
  6379     0DDD                     u146_27:
  6380     0DDD  0BE2               	decfsz	??_Interrups,f
  6381     0DDE  2DDD               	goto	u146_27
  6382     0DDF  0BE3               	decfsz	??_Interrups+1,f
  6383     0DE0  2DDD               	goto	u146_27
  6384     0DE1  0000               	nop
  6385     0DE2                     i1l3079:
  6386                           
  6387                           ;Digitizer24bitsV1.c: 388:                 SumData_AUX2 = 0;
  6388     0DE2  3000               	movlw	0
  6389     0DE3  1683               	bsf	3,5	;RP0=1, select bank1
  6390     0DE4  1303               	bcf	3,6	;RP1=0, select bank1
  6391     0DE5  00AF               	movwf	(_SumData_AUX2+3)^(0+128)
  6392     0DE6  3000               	movlw	0
  6393     0DE7  00AE               	movwf	(_SumData_AUX2+2)^(0+128)
  6394     0DE8  3000               	movlw	0
  6395     0DE9  00AD               	movwf	(_SumData_AUX2+1)^(0+128)
  6396     0DEA  3000               	movlw	0
  6397     0DEB  00AC               	movwf	_SumData_AUX2^(0+128)
  6398     0DEC                     i1l3081:
  6399                           
  6400                           ;Digitizer24bitsV1.c: 389:                 ReadAD24(0,0x00);
  6401     0DEC  1283               	bcf	3,5	;RP0=0, select bank0
  6402     0DED  1303               	bcf	3,6	;RP1=0, select bank0
  6403     0DEE  01D5               	clrf	ReadAD24@cmd_convert
  6404     0DEF  3000               	movlw	0
  6405     0DF0  160A  118A  23DE  120A  158A  	fcall	_ReadAD24
  6406     0DF5                     i1l3083:
  6407                           
  6408                           ;Digitizer24bitsV1.c: 390:                 for(conta=0; conta<5; conta++){
  6409     0DF5  1283               	bcf	3,5	;RP0=0, select bank0
  6410     0DF6  1303               	bcf	3,6	;RP1=0, select bank0
  6411     0DF7  01EB               	clrf	Interrups@conta
  6412     0DF8                     i1l3085:
  6413     0DF8  3005               	movlw	5
  6414     0DF9  026B               	subwf	Interrups@conta,w
  6415     0DFA  1C03               	skipc
  6416     0DFB  2DFD               	goto	u116_21
  6417     0DFC  2DFE               	goto	u116_20
  6418     0DFD                     u116_21:
  6419     0DFD  2DFF               	goto	i1l3089
  6420     0DFE                     u116_20:
  6421     0DFE  2E70               	goto	i1l3097
  6422     0DFF                     i1l3089:
  6423                           
  6424                           ;Digitizer24bitsV1.c: 391:                     Data_AUX2 = ReadAD24(1,0x00);
  6425     0DFF  01D5               	clrf	ReadAD24@cmd_convert
  6426     0E00  3001               	movlw	1
  6427     0E01  160A  118A  23DE  120A  158A  	fcall	_ReadAD24
  6428     0E06  1283               	bcf	3,5	;RP0=0, select bank0
  6429     0E07  1303               	bcf	3,6	;RP1=0, select bank0
  6430     0E08  0858               	movf	?_ReadAD24+3,w
  6431     0E09  1683               	bsf	3,5	;RP0=1, select bank1
  6432     0E0A  1303               	bcf	3,6	;RP1=0, select bank1
  6433     0E0B  00A3               	movwf	(_Data_AUX2+3)^(0+128)
  6434     0E0C  1283               	bcf	3,5	;RP0=0, select bank0
  6435     0E0D  1303               	bcf	3,6	;RP1=0, select bank0
  6436     0E0E  0857               	movf	?_ReadAD24+2,w
  6437     0E0F  1683               	bsf	3,5	;RP0=1, select bank1
  6438     0E10  1303               	bcf	3,6	;RP1=0, select bank1
  6439     0E11  00A2               	movwf	(_Data_AUX2+2)^(0+128)
  6440     0E12  1283               	bcf	3,5	;RP0=0, select bank0
  6441     0E13  1303               	bcf	3,6	;RP1=0, select bank0
  6442     0E14  0856               	movf	?_ReadAD24+1,w
  6443     0E15  1683               	bsf	3,5	;RP0=1, select bank1
  6444     0E16  1303               	bcf	3,6	;RP1=0, select bank1
  6445     0E17  00A1               	movwf	(_Data_AUX2+1)^(0+128)
  6446     0E18  1283               	bcf	3,5	;RP0=0, select bank0
  6447     0E19  1303               	bcf	3,6	;RP1=0, select bank0
  6448     0E1A  0855               	movf	?_ReadAD24,w
  6449     0E1B  1683               	bsf	3,5	;RP0=1, select bank1
  6450     0E1C  1303               	bcf	3,6	;RP1=0, select bank1
  6451     0E1D  00A0               	movwf	_Data_AUX2^(0+128)
  6452     0E1E                     i1l3091:
  6453                           
  6454                           ;Digitizer24bitsV1.c: 392:                     SumData_AUX2 = SumData_AUX2 + Data_AUX2;
  6455     0E1E  082C               	movf	_SumData_AUX2^(0+128),w
  6456     0E1F  0720               	addwf	_Data_AUX2^(0+128),w
  6457     0E20  1283               	bcf	3,5	;RP0=0, select bank0
  6458     0E21  1303               	bcf	3,6	;RP1=0, select bank0
  6459     0E22  00E2               	movwf	??_Interrups
  6460     0E23  3000               	movlw	0
  6461     0E24  1803               	skipnc
  6462     0E25  3001               	movlw	1
  6463     0E26  1683               	bsf	3,5	;RP0=1, select bank1
  6464     0E27  1303               	bcf	3,6	;RP1=0, select bank1
  6465     0E28  072D               	addwf	(_SumData_AUX2+1)^(0+128),w
  6466     0E29  1283               	bcf	3,5	;RP0=0, select bank0
  6467     0E2A  1303               	bcf	3,6	;RP1=0, select bank0
  6468     0E2B  01E4               	clrf	??_Interrups+2
  6469     0E2C  1803               	skipnc
  6470     0E2D  0AE4               	incf	??_Interrups+2,f
  6471     0E2E  1683               	bsf	3,5	;RP0=1, select bank1
  6472     0E2F  1303               	bcf	3,6	;RP1=0, select bank1
  6473     0E30  0721               	addwf	(_Data_AUX2+1)^(0+128),w
  6474     0E31  1283               	bcf	3,5	;RP0=0, select bank0
  6475     0E32  1303               	bcf	3,6	;RP1=0, select bank0
  6476     0E33  00E3               	movwf	??_Interrups+1
  6477     0E34  1803               	skipnc
  6478     0E35  0AE4               	incf	??_Interrups+2,f
  6479     0E36  1683               	bsf	3,5	;RP0=1, select bank1
  6480     0E37  1303               	bcf	3,6	;RP1=0, select bank1
  6481     0E38  082E               	movf	(_SumData_AUX2+2)^(0+128),w
  6482     0E39  1283               	bcf	3,5	;RP0=0, select bank0
  6483     0E3A  1303               	bcf	3,6	;RP1=0, select bank0
  6484     0E3B  0764               	addwf	??_Interrups+2,w
  6485     0E3C  01E5               	clrf	??_Interrups+3
  6486     0E3D  1803               	skipnc
  6487     0E3E  0AE5               	incf	??_Interrups+3,f
  6488     0E3F  1683               	bsf	3,5	;RP0=1, select bank1
  6489     0E40  1303               	bcf	3,6	;RP1=0, select bank1
  6490     0E41  0722               	addwf	(_Data_AUX2+2)^(0+128),w
  6491     0E42  1283               	bcf	3,5	;RP0=0, select bank0
  6492     0E43  1303               	bcf	3,6	;RP1=0, select bank0
  6493     0E44  00E4               	movwf	??_Interrups+2
  6494     0E45  1803               	skipnc
  6495     0E46  0AE5               	incf	??_Interrups+3,f
  6496     0E47  1683               	bsf	3,5	;RP0=1, select bank1
  6497     0E48  1303               	bcf	3,6	;RP1=0, select bank1
  6498     0E49  082F               	movf	(_SumData_AUX2+3)^(0+128),w
  6499     0E4A  1283               	bcf	3,5	;RP0=0, select bank0
  6500     0E4B  1303               	bcf	3,6	;RP1=0, select bank0
  6501     0E4C  0765               	addwf	??_Interrups+3,w
  6502     0E4D  1683               	bsf	3,5	;RP0=1, select bank1
  6503     0E4E  1303               	bcf	3,6	;RP1=0, select bank1
  6504     0E4F  0723               	addwf	(_Data_AUX2+3)^(0+128),w
  6505     0E50  1283               	bcf	3,5	;RP0=0, select bank0
  6506     0E51  1303               	bcf	3,6	;RP1=0, select bank0
  6507     0E52  00E5               	movwf	??_Interrups+3
  6508     0E53  0865               	movf	??_Interrups+3,w
  6509     0E54  1683               	bsf	3,5	;RP0=1, select bank1
  6510     0E55  1303               	bcf	3,6	;RP1=0, select bank1
  6511     0E56  00AF               	movwf	(_SumData_AUX2+3)^(0+128)
  6512     0E57  1283               	bcf	3,5	;RP0=0, select bank0
  6513     0E58  1303               	bcf	3,6	;RP1=0, select bank0
  6514     0E59  0864               	movf	??_Interrups+2,w
  6515     0E5A  1683               	bsf	3,5	;RP0=1, select bank1
  6516     0E5B  1303               	bcf	3,6	;RP1=0, select bank1
  6517     0E5C  00AE               	movwf	(_SumData_AUX2+2)^(0+128)
  6518     0E5D  1283               	bcf	3,5	;RP0=0, select bank0
  6519     0E5E  1303               	bcf	3,6	;RP1=0, select bank0
  6520     0E5F  0863               	movf	??_Interrups+1,w
  6521     0E60  1683               	bsf	3,5	;RP0=1, select bank1
  6522     0E61  1303               	bcf	3,6	;RP1=0, select bank1
  6523     0E62  00AD               	movwf	(_SumData_AUX2+1)^(0+128)
  6524     0E63  1283               	bcf	3,5	;RP0=0, select bank0
  6525     0E64  1303               	bcf	3,6	;RP1=0, select bank0
  6526     0E65  0862               	movf	??_Interrups,w
  6527     0E66  1683               	bsf	3,5	;RP0=1, select bank1
  6528     0E67  1303               	bcf	3,6	;RP1=0, select bank1
  6529     0E68  00AC               	movwf	_SumData_AUX2^(0+128)
  6530     0E69                     i1l3093:
  6531                           
  6532                           ;Digitizer24bitsV1.c: 393:                 }
  6533     0E69  3001               	movlw	1
  6534     0E6A  00FF               	movwf	btemp+1
  6535     0E6B  087F               	movf	btemp+1,w
  6536     0E6C  1283               	bcf	3,5	;RP0=0, select bank0
  6537     0E6D  1303               	bcf	3,6	;RP1=0, select bank0
  6538     0E6E  07EB               	addwf	Interrups@conta,f
  6539     0E6F  2DF8               	goto	i1l3085
  6540     0E70                     i1l3097:
  6541                           
  6542                           ;Digitizer24bitsV1.c: 396:                 Data_X = SumData_X/5;
  6543     0E70  3000               	movlw	0
  6544     0E71  00F3               	movwf	___aldiv@divisor+3
  6545     0E72  3000               	movlw	0
  6546     0E73  00F2               	movwf	___aldiv@divisor+2
  6547     0E74  3000               	movlw	0
  6548     0E75  00F1               	movwf	___aldiv@divisor+1
  6549     0E76  3005               	movlw	5
  6550     0E77  00F0               	movwf	___aldiv@divisor
  6551     0E78  084B               	movf	_SumData_X+3,w
  6552     0E79  00F7               	movwf	___aldiv@dividend+3
  6553     0E7A  084A               	movf	_SumData_X+2,w
  6554     0E7B  00F6               	movwf	___aldiv@dividend+2
  6555     0E7C  0849               	movf	_SumData_X+1,w
  6556     0E7D  00F5               	movwf	___aldiv@dividend+1
  6557     0E7E  0848               	movf	_SumData_X,w
  6558     0E7F  00F4               	movwf	___aldiv@dividend
  6559     0E80  160A  118A  2341  120A  158A  	fcall	___aldiv
  6560     0E85  0873               	movf	?___aldiv+3,w
  6561     0E86  1283               	bcf	3,5	;RP0=0, select bank0
  6562     0E87  1303               	bcf	3,6	;RP1=0, select bank0
  6563     0E88  00B7               	movwf	_Data_X+3
  6564     0E89  0872               	movf	?___aldiv+2,w
  6565     0E8A  00B6               	movwf	_Data_X+2
  6566     0E8B  0871               	movf	?___aldiv+1,w
  6567     0E8C  00B5               	movwf	_Data_X+1
  6568     0E8D  0870               	movf	?___aldiv,w
  6569     0E8E  00B4               	movwf	_Data_X
  6570                           
  6571                           ;Digitizer24bitsV1.c: 397:                 Data_Y = SumData_Y/5;
  6572     0E8F  3000               	movlw	0
  6573     0E90  00F3               	movwf	___aldiv@divisor+3
  6574     0E91  3000               	movlw	0
  6575     0E92  00F2               	movwf	___aldiv@divisor+2
  6576     0E93  3000               	movlw	0
  6577     0E94  00F1               	movwf	___aldiv@divisor+1
  6578     0E95  3005               	movlw	5
  6579     0E96  00F0               	movwf	___aldiv@divisor
  6580     0E97  0847               	movf	_SumData_Y+3,w
  6581     0E98  00F7               	movwf	___aldiv@dividend+3
  6582     0E99  0846               	movf	_SumData_Y+2,w
  6583     0E9A  00F6               	movwf	___aldiv@dividend+2
  6584     0E9B  0845               	movf	_SumData_Y+1,w
  6585     0E9C  00F5               	movwf	___aldiv@dividend+1
  6586     0E9D  0844               	movf	_SumData_Y,w
  6587     0E9E  00F4               	movwf	___aldiv@dividend
  6588     0E9F  160A  118A  2341  120A  158A  	fcall	___aldiv
  6589     0EA4  0873               	movf	?___aldiv+3,w
  6590     0EA5  1283               	bcf	3,5	;RP0=0, select bank0
  6591     0EA6  1303               	bcf	3,6	;RP1=0, select bank0
  6592     0EA7  00B3               	movwf	_Data_Y+3
  6593     0EA8  0872               	movf	?___aldiv+2,w
  6594     0EA9  00B2               	movwf	_Data_Y+2
  6595     0EAA  0871               	movf	?___aldiv+1,w
  6596     0EAB  00B1               	movwf	_Data_Y+1
  6597     0EAC  0870               	movf	?___aldiv,w
  6598     0EAD  00B0               	movwf	_Data_Y
  6599                           
  6600                           ;Digitizer24bitsV1.c: 398:                 Data_Z = SumData_Z/5;
  6601     0EAE  3000               	movlw	0
  6602     0EAF  00F3               	movwf	___aldiv@divisor+3
  6603     0EB0  3000               	movlw	0
  6604     0EB1  00F2               	movwf	___aldiv@divisor+2
  6605     0EB2  3000               	movlw	0
  6606     0EB3  00F1               	movwf	___aldiv@divisor+1
  6607     0EB4  3005               	movlw	5
  6608     0EB5  00F0               	movwf	___aldiv@divisor
  6609     0EB6  0843               	movf	_SumData_Z+3,w
  6610     0EB7  00F7               	movwf	___aldiv@dividend+3
  6611     0EB8  0842               	movf	_SumData_Z+2,w
  6612     0EB9  00F6               	movwf	___aldiv@dividend+2
  6613     0EBA  0841               	movf	_SumData_Z+1,w
  6614     0EBB  00F5               	movwf	___aldiv@dividend+1
  6615     0EBC  0840               	movf	_SumData_Z,w
  6616     0EBD  00F4               	movwf	___aldiv@dividend
  6617     0EBE  160A  118A  2341  120A  158A  	fcall	___aldiv
  6618     0EC3  0873               	movf	?___aldiv+3,w
  6619     0EC4  1283               	bcf	3,5	;RP0=0, select bank0
  6620     0EC5  1303               	bcf	3,6	;RP1=0, select bank0
  6621     0EC6  00AF               	movwf	_Data_Z+3
  6622     0EC7  0872               	movf	?___aldiv+2,w
  6623     0EC8  00AE               	movwf	_Data_Z+2
  6624     0EC9  0871               	movf	?___aldiv+1,w
  6625     0ECA  00AD               	movwf	_Data_Z+1
  6626     0ECB  0870               	movf	?___aldiv,w
  6627     0ECC  00AC               	movwf	_Data_Z
  6628                           
  6629                           ;Digitizer24bitsV1.c: 399:                 Data_TC = SumData_TC/5;
  6630     0ECD  3000               	movlw	0
  6631     0ECE  00F3               	movwf	___aldiv@divisor+3
  6632     0ECF  3000               	movlw	0
  6633     0ED0  00F2               	movwf	___aldiv@divisor+2
  6634     0ED1  3000               	movlw	0
  6635     0ED2  00F1               	movwf	___aldiv@divisor+1
  6636     0ED3  3005               	movlw	5
  6637     0ED4  00F0               	movwf	___aldiv@divisor
  6638     0ED5  083F               	movf	_SumData_TC+3,w
  6639     0ED6  00F7               	movwf	___aldiv@dividend+3
  6640     0ED7  083E               	movf	_SumData_TC+2,w
  6641     0ED8  00F6               	movwf	___aldiv@dividend+2
  6642     0ED9  083D               	movf	_SumData_TC+1,w
  6643     0EDA  00F5               	movwf	___aldiv@dividend+1
  6644     0EDB  083C               	movf	_SumData_TC,w
  6645     0EDC  00F4               	movwf	___aldiv@dividend
  6646     0EDD  160A  118A  2341  120A  158A  	fcall	___aldiv
  6647     0EE2  0873               	movf	?___aldiv+3,w
  6648     0EE3  1283               	bcf	3,5	;RP0=0, select bank0
  6649     0EE4  1303               	bcf	3,6	;RP1=0, select bank0
  6650     0EE5  00AB               	movwf	_Data_TC+3
  6651     0EE6  0872               	movf	?___aldiv+2,w
  6652     0EE7  00AA               	movwf	_Data_TC+2
  6653     0EE8  0871               	movf	?___aldiv+1,w
  6654     0EE9  00A9               	movwf	_Data_TC+1
  6655     0EEA  0870               	movf	?___aldiv,w
  6656     0EEB  00A8               	movwf	_Data_TC
  6657                           
  6658                           ;Digitizer24bitsV1.c: 400:                 Data_TS = SumData_TS/5;
  6659     0EEC  3000               	movlw	0
  6660     0EED  00F3               	movwf	___aldiv@divisor+3
  6661     0EEE  3000               	movlw	0
  6662     0EEF  00F2               	movwf	___aldiv@divisor+2
  6663     0EF0  3000               	movlw	0
  6664     0EF1  00F1               	movwf	___aldiv@divisor+1
  6665     0EF2  3005               	movlw	5
  6666     0EF3  00F0               	movwf	___aldiv@divisor
  6667     0EF4  083B               	movf	_SumData_TS+3,w
  6668     0EF5  00F7               	movwf	___aldiv@dividend+3
  6669     0EF6  083A               	movf	_SumData_TS+2,w
  6670     0EF7  00F6               	movwf	___aldiv@dividend+2
  6671     0EF8  0839               	movf	_SumData_TS+1,w
  6672     0EF9  00F5               	movwf	___aldiv@dividend+1
  6673     0EFA  0838               	movf	_SumData_TS,w
  6674     0EFB  00F4               	movwf	___aldiv@dividend
  6675     0EFC  160A  118A  2341  120A  158A  	fcall	___aldiv
  6676     0F01  0873               	movf	?___aldiv+3,w
  6677     0F02  1283               	bcf	3,5	;RP0=0, select bank0
  6678     0F03  1303               	bcf	3,6	;RP1=0, select bank0
  6679     0F04  00A7               	movwf	_Data_TS+3
  6680     0F05  0872               	movf	?___aldiv+2,w
  6681     0F06  00A6               	movwf	_Data_TS+2
  6682     0F07  0871               	movf	?___aldiv+1,w
  6683     0F08  00A5               	movwf	_Data_TS+1
  6684     0F09  0870               	movf	?___aldiv,w
  6685     0F0A  00A4               	movwf	_Data_TS
  6686                           
  6687                           ;Digitizer24bitsV1.c: 401:                 Data_AUX0 = SumData_AUX0/5;
  6688     0F0B  3000               	movlw	0
  6689     0F0C  00F3               	movwf	___aldiv@divisor+3
  6690     0F0D  3000               	movlw	0
  6691     0F0E  00F2               	movwf	___aldiv@divisor+2
  6692     0F0F  3000               	movlw	0
  6693     0F10  00F1               	movwf	___aldiv@divisor+1
  6694     0F11  3005               	movlw	5
  6695     0F12  00F0               	movwf	___aldiv@divisor
  6696     0F13  0823               	movf	_SumData_AUX0+3,w
  6697     0F14  00F7               	movwf	___aldiv@dividend+3
  6698     0F15  0822               	movf	_SumData_AUX0+2,w
  6699     0F16  00F6               	movwf	___aldiv@dividend+2
  6700     0F17  0821               	movf	_SumData_AUX0+1,w
  6701     0F18  00F5               	movwf	___aldiv@dividend+1
  6702     0F19  0820               	movf	_SumData_AUX0,w
  6703     0F1A  00F4               	movwf	___aldiv@dividend
  6704     0F1B  160A  118A  2341  120A  158A  	fcall	___aldiv
  6705     0F20  0873               	movf	?___aldiv+3,w
  6706     0F21  1683               	bsf	3,5	;RP0=1, select bank1
  6707     0F22  1303               	bcf	3,6	;RP1=0, select bank1
  6708     0F23  00AB               	movwf	(_Data_AUX0+3)^(0+128)
  6709     0F24  0872               	movf	?___aldiv+2,w
  6710     0F25  00AA               	movwf	(_Data_AUX0+2)^(0+128)
  6711     0F26  0871               	movf	?___aldiv+1,w
  6712     0F27  00A9               	movwf	(_Data_AUX0+1)^(0+128)
  6713     0F28  0870               	movf	?___aldiv,w
  6714     0F29  00A8               	movwf	_Data_AUX0^(0+128)
  6715                           
  6716                           ;Digitizer24bitsV1.c: 402:                 Data_AUX1 = SumData_AUX1/5;
  6717     0F2A  3000               	movlw	0
  6718     0F2B  00F3               	movwf	___aldiv@divisor+3
  6719     0F2C  3000               	movlw	0
  6720     0F2D  00F2               	movwf	___aldiv@divisor+2
  6721     0F2E  3000               	movlw	0
  6722     0F2F  00F1               	movwf	___aldiv@divisor+1
  6723     0F30  3005               	movlw	5
  6724     0F31  00F0               	movwf	___aldiv@divisor
  6725     0F32  0833               	movf	(_SumData_AUX1+3)^(0+128),w
  6726     0F33  00F7               	movwf	___aldiv@dividend+3
  6727     0F34  0832               	movf	(_SumData_AUX1+2)^(0+128),w
  6728     0F35  00F6               	movwf	___aldiv@dividend+2
  6729     0F36  0831               	movf	(_SumData_AUX1+1)^(0+128),w
  6730     0F37  00F5               	movwf	___aldiv@dividend+1
  6731     0F38  0830               	movf	_SumData_AUX1^(0+128),w
  6732     0F39  00F4               	movwf	___aldiv@dividend
  6733     0F3A  160A  118A  2341  120A  158A  	fcall	___aldiv
  6734     0F3F  0873               	movf	?___aldiv+3,w
  6735     0F40  1683               	bsf	3,5	;RP0=1, select bank1
  6736     0F41  1303               	bcf	3,6	;RP1=0, select bank1
  6737     0F42  00A7               	movwf	(_Data_AUX1+3)^(0+128)
  6738     0F43  0872               	movf	?___aldiv+2,w
  6739     0F44  00A6               	movwf	(_Data_AUX1+2)^(0+128)
  6740     0F45  0871               	movf	?___aldiv+1,w
  6741     0F46  00A5               	movwf	(_Data_AUX1+1)^(0+128)
  6742     0F47  0870               	movf	?___aldiv,w
  6743     0F48  00A4               	movwf	_Data_AUX1^(0+128)
  6744                           
  6745                           ;Digitizer24bitsV1.c: 403:                 Data_AUX2 = SumData_AUX2/5;
  6746     0F49  3000               	movlw	0
  6747     0F4A  00F3               	movwf	___aldiv@divisor+3
  6748     0F4B  3000               	movlw	0
  6749     0F4C  00F2               	movwf	___aldiv@divisor+2
  6750     0F4D  3000               	movlw	0
  6751     0F4E  00F1               	movwf	___aldiv@divisor+1
  6752     0F4F  3005               	movlw	5
  6753     0F50  00F0               	movwf	___aldiv@divisor
  6754     0F51  082F               	movf	(_SumData_AUX2+3)^(0+128),w
  6755     0F52  00F7               	movwf	___aldiv@dividend+3
  6756     0F53  082E               	movf	(_SumData_AUX2+2)^(0+128),w
  6757     0F54  00F6               	movwf	___aldiv@dividend+2
  6758     0F55  082D               	movf	(_SumData_AUX2+1)^(0+128),w
  6759     0F56  00F5               	movwf	___aldiv@dividend+1
  6760     0F57  082C               	movf	_SumData_AUX2^(0+128),w
  6761     0F58  00F4               	movwf	___aldiv@dividend
  6762     0F59  160A  118A  2341  120A  158A  	fcall	___aldiv
  6763     0F5E  0873               	movf	?___aldiv+3,w
  6764     0F5F  1683               	bsf	3,5	;RP0=1, select bank1
  6765     0F60  1303               	bcf	3,6	;RP1=0, select bank1
  6766     0F61  00A3               	movwf	(_Data_AUX2+3)^(0+128)
  6767     0F62  0872               	movf	?___aldiv+2,w
  6768     0F63  00A2               	movwf	(_Data_AUX2+2)^(0+128)
  6769     0F64  0871               	movf	?___aldiv+1,w
  6770     0F65  00A1               	movwf	(_Data_AUX2+1)^(0+128)
  6771     0F66  0870               	movf	?___aldiv,w
  6772     0F67  00A0               	movwf	_Data_AUX2^(0+128)
  6773     0F68                     i1l3099:
  6774                           
  6775                           ;Digitizer24bitsV1.c: 406:                 print_string("JROADQ");
  6776     0F68  3039               	movlw	(low ((STR_3-__stringbase)| (0+32768)))& (0+255)
  6777     0F69  00F1               	movwf	print_string@str
  6778     0F6A  3080               	movlw	128
  6779     0F6B  00F2               	movwf	print_string@str+1
  6780     0F6C  160A  118A  2195  120A  158A  	fcall	_print_string
  6781     0F71                     i1l3101:
  6782                           
  6783                           ;Digitizer24bitsV1.c: 407:                 WriteByte_USART(ContaSample);
  6784     0F71  1283               	bcf	3,5	;RP0=0, select bank0
  6785     0F72  1303               	bcf	3,6	;RP1=0, select bank0
  6786     0F73  084C               	movf	_ContaSample,w
  6787     0F74  160A  118A  20EF  120A  158A  	fcall	_WriteByte_USART
  6788     0F79                     i1l3103:
  6789                           
  6790                           ;Digitizer24bitsV1.c: 408:                 print_value(Data_X);
  6791     0F79  1283               	bcf	3,5	;RP0=0, select bank0
  6792     0F7A  1303               	bcf	3,6	;RP1=0, select bank0
  6793     0F7B  0837               	movf	_Data_X+3,w
  6794     0F7C  00F4               	movwf	print_value@value+3
  6795     0F7D  0836               	movf	_Data_X+2,w
  6796     0F7E  00F3               	movwf	print_value@value+2
  6797     0F7F  0835               	movf	_Data_X+1,w
  6798     0F80  00F2               	movwf	print_value@value+1
  6799     0F81  0834               	movf	_Data_X,w
  6800     0F82  00F1               	movwf	print_value@value
  6801     0F83  160A  118A  220F  120A  158A  	fcall	_print_value
  6802     0F88                     i1l3105:
  6803                           
  6804                           ;Digitizer24bitsV1.c: 409:                 print_value(Data_Y);
  6805     0F88  1283               	bcf	3,5	;RP0=0, select bank0
  6806     0F89  1303               	bcf	3,6	;RP1=0, select bank0
  6807     0F8A  0833               	movf	_Data_Y+3,w
  6808     0F8B  00F4               	movwf	print_value@value+3
  6809     0F8C  0832               	movf	_Data_Y+2,w
  6810     0F8D  00F3               	movwf	print_value@value+2
  6811     0F8E  0831               	movf	_Data_Y+1,w
  6812     0F8F  00F2               	movwf	print_value@value+1
  6813     0F90  0830               	movf	_Data_Y,w
  6814     0F91  00F1               	movwf	print_value@value
  6815     0F92  160A  118A  220F  120A  158A  	fcall	_print_value
  6816     0F97                     i1l3107:
  6817                           
  6818                           ;Digitizer24bitsV1.c: 410:                 print_value(Data_Z);
  6819     0F97  1283               	bcf	3,5	;RP0=0, select bank0
  6820     0F98  1303               	bcf	3,6	;RP1=0, select bank0
  6821     0F99  082F               	movf	_Data_Z+3,w
  6822     0F9A  00F4               	movwf	print_value@value+3
  6823     0F9B  082E               	movf	_Data_Z+2,w
  6824     0F9C  00F3               	movwf	print_value@value+2
  6825     0F9D  082D               	movf	_Data_Z+1,w
  6826     0F9E  00F2               	movwf	print_value@value+1
  6827     0F9F  082C               	movf	_Data_Z,w
  6828     0FA0  00F1               	movwf	print_value@value
  6829     0FA1  160A  118A  220F  120A  158A  	fcall	_print_value
  6830     0FA6                     i1l3109:
  6831                           
  6832                           ;Digitizer24bitsV1.c: 411:                 print_value(Data_TC);
  6833     0FA6  1283               	bcf	3,5	;RP0=0, select bank0
  6834     0FA7  1303               	bcf	3,6	;RP1=0, select bank0
  6835     0FA8  082B               	movf	_Data_TC+3,w
  6836     0FA9  00F4               	movwf	print_value@value+3
  6837     0FAA  082A               	movf	_Data_TC+2,w
  6838     0FAB  00F3               	movwf	print_value@value+2
  6839     0FAC  0829               	movf	_Data_TC+1,w
  6840     0FAD  00F2               	movwf	print_value@value+1
  6841     0FAE  0828               	movf	_Data_TC,w
  6842     0FAF  00F1               	movwf	print_value@value
  6843     0FB0  160A  118A  220F  120A  158A  	fcall	_print_value
  6844     0FB5                     i1l3111:
  6845                           
  6846                           ;Digitizer24bitsV1.c: 412:                 print_value(Data_TS);
  6847     0FB5  1283               	bcf	3,5	;RP0=0, select bank0
  6848     0FB6  1303               	bcf	3,6	;RP1=0, select bank0
  6849     0FB7  0827               	movf	_Data_TS+3,w
  6850     0FB8  00F4               	movwf	print_value@value+3
  6851     0FB9  0826               	movf	_Data_TS+2,w
  6852     0FBA  00F3               	movwf	print_value@value+2
  6853     0FBB  0825               	movf	_Data_TS+1,w
  6854     0FBC  00F2               	movwf	print_value@value+1
  6855     0FBD  0824               	movf	_Data_TS,w
  6856     0FBE  00F1               	movwf	print_value@value
  6857     0FBF  160A  118A  220F  120A  158A  	fcall	_print_value
  6858     0FC4                     i1l3113:
  6859                           
  6860                           ;Digitizer24bitsV1.c: 413:                 print_value(Data_AUX0);
  6861     0FC4  1683               	bsf	3,5	;RP0=1, select bank1
  6862     0FC5  1303               	bcf	3,6	;RP1=0, select bank1
  6863     0FC6  082B               	movf	(_Data_AUX0+3)^(0+128),w
  6864     0FC7  00F4               	movwf	print_value@value+3
  6865     0FC8  082A               	movf	(_Data_AUX0+2)^(0+128),w
  6866     0FC9  00F3               	movwf	print_value@value+2
  6867     0FCA  0829               	movf	(_Data_AUX0+1)^(0+128),w
  6868     0FCB  00F2               	movwf	print_value@value+1
  6869     0FCC  0828               	movf	_Data_AUX0^(0+128),w
  6870     0FCD  00F1               	movwf	print_value@value
  6871     0FCE  160A  118A  220F  120A  158A  	fcall	_print_value
  6872     0FD3                     i1l3115:
  6873                           
  6874                           ;Digitizer24bitsV1.c: 414:                 print_value(Data_AUX1);
  6875     0FD3  1683               	bsf	3,5	;RP0=1, select bank1
  6876     0FD4  1303               	bcf	3,6	;RP1=0, select bank1
  6877     0FD5  0827               	movf	(_Data_AUX1+3)^(0+128),w
  6878     0FD6  00F4               	movwf	print_value@value+3
  6879     0FD7  0826               	movf	(_Data_AUX1+2)^(0+128),w
  6880     0FD8  00F3               	movwf	print_value@value+2
  6881     0FD9  0825               	movf	(_Data_AUX1+1)^(0+128),w
  6882     0FDA  00F2               	movwf	print_value@value+1
  6883     0FDB  0824               	movf	_Data_AUX1^(0+128),w
  6884     0FDC  00F1               	movwf	print_value@value
  6885     0FDD  160A  118A  220F  120A  158A  	fcall	_print_value
  6886     0FE2                     i1l3117:
  6887                           
  6888                           ;Digitizer24bitsV1.c: 415:                 print_value(Data_AUX2);
  6889     0FE2  1683               	bsf	3,5	;RP0=1, select bank1
  6890     0FE3  1303               	bcf	3,6	;RP1=0, select bank1
  6891     0FE4  0823               	movf	(_Data_AUX2+3)^(0+128),w
  6892     0FE5  00F4               	movwf	print_value@value+3
  6893     0FE6  0822               	movf	(_Data_AUX2+2)^(0+128),w
  6894     0FE7  00F3               	movwf	print_value@value+2
  6895     0FE8  0821               	movf	(_Data_AUX2+1)^(0+128),w
  6896     0FE9  00F2               	movwf	print_value@value+1
  6897     0FEA  0820               	movf	_Data_AUX2^(0+128),w
  6898     0FEB  00F1               	movwf	print_value@value
  6899     0FEC  160A  118A  220F  120A  158A  	fcall	_print_value
  6900     0FF1                     i1l3119:
  6901                           
  6902                           ;Digitizer24bitsV1.c: 416:                 print_string("\n\r");
  6903     0FF1  3016               	movlw	(low (((STR_5+21)-__stringbase)| (0+32768)))& (0+255)
  6904     0FF2  00F1               	movwf	print_string@str
  6905     0FF3  3080               	movlw	128
  6906     0FF4  00F2               	movwf	print_string@str+1
  6907     0FF5  160A  118A  2195  120A  158A  	fcall	_print_string
  6908     0FFA                     i1l3121:
  6909                           
  6910                           ;Digitizer24bitsV1.c: 418:                 PORTAbits.RA2 = 0;
  6911     0FFA  1283               	bcf	3,5	;RP0=0, select bank0
  6912     0FFB  1303               	bcf	3,6	;RP1=0, select bank0
  6913     0FFC  1105               	bcf	5,2	;volatile
  6914                           
  6915                           ;Digitizer24bitsV1.c: 420:                 break;
  6916     0FFD  120A  118A  2DF6   	goto	i1l204
  6917                           
  6918                           	psect	text7_split_8
  6919     002A                     i1l3123:
  6920                           
  6921                           ;Digitizer24bitsV1.c: 422:                 TransmitCMD_USART('X');
  6922     002A  3058               	movlw	88
  6923     002B  160A  118A  2140  120A  118A  	fcall	_TransmitCMD_USART
  6924     0030                     i1l3125:
  6925                           
  6926                           ;Digitizer24bitsV1.c: 423:                 RCSTAbits.CREN = 1;
  6927     0030  1283               	bcf	3,5	;RP0=0, select bank0
  6928     0031  1303               	bcf	3,6	;RP1=0, select bank0
  6929     0032  1618               	bsf	24,4	;volatile
  6930                           
  6931                           ;Digitizer24bitsV1.c: 424:         }
  6932     0033  2DF6               	goto	i1l204
  6933     0034                     i1l3127:
  6934     0034  086A               	movf	Interrups@ID,w
  6935     0035  00E2               	movwf	??_Interrups
  6936     0036  01E3               	clrf	??_Interrups+1
  6937                           
  6938                           ; Switch on 2 bytes has been partitioned into a top level switch of size 1, and 1 sub-sw
      +                          itches
  6939                           ; Switch size 1, requested type "simple"
  6940                           ; Number of cases is 1, Range of values is 0 to 0
  6941                           ; switch strategies available:
  6942                           ; Name         Instructions Cycles
  6943                           ; simple_byte            4     3 (average)
  6944                           ; direct_byte           11     8 (fixed)
  6945                           ; jumptable            260     6 (fixed)
  6946                           ;	Chosen strategy is simple_byte
  6947     0037  0863               	movf	??_Interrups+1,w
  6948     0038  3A00               	xorlw	0	; case 0
  6949     0039  1903               	skipnz
  6950     003A  283C               	goto	i1l3603
  6951     003B  282A               	goto	i1l3123
  6952     003C                     i1l3603:
  6953                           
  6954                           ; Switch size 1, requested type "simple"
  6955                           ; Number of cases is 10, Range of values is 48 to 57
  6956                           ; switch strategies available:
  6957                           ; Name         Instructions Cycles
  6958                           ; simple_byte           31    16 (average)
  6959                           ; direct_byte           41    11 (fixed)
  6960                           ; jumptable            263     9 (fixed)
  6961                           ;	Chosen strategy is simple_byte
  6962     003C  0862               	movf	??_Interrups,w
  6963     003D  3A30               	xorlw	48	; case 48
  6964     003E  120A  118A  1903   	skipnz
  6965     0041  2E64               	goto	i1l2767
  6966     0042  3A01               	xorlw	1	; case 49
  6967     0043  1903               	skipnz
  6968     0044  2E7A               	goto	i1l2779
  6969     0045  3A03               	xorlw	3	; case 50
  6970     0046  1903               	skipnz
  6971     0047  2E8A  120A  118A   	goto	i1l2789
  6972     004A  3A01               	xorlw	1	; case 51
  6973     004B  1903               	skipnz
  6974     004C  2E15               	goto	L17
  6975     004D  3A07               	xorlw	7	; case 52
  6976     004E  1903               	skipnz
  6977     004F  2E0F               	goto	L13
  6978     0050  3A01               	xorlw	1	; case 53
  6979     0051  1903               	skipnz
  6980     0052  2E09               	goto	L9
  6981     0053  3A03               	xorlw	3	; case 54
  6982     0054  1903               	skipnz
  6983     0055  2E06               	goto	L6
  6984     0056  3A01               	xorlw	1	; case 55
  6985     0057  1903               	skipnz
  6986     0058  2E18               	goto	L19
  6987     0059  3A0F               	xorlw	15	; case 56
  6988     005A  1903               	skipnz
  6989     005B  2E12               	goto	L15
  6990     005C  3A01               	xorlw	1	; case 57
  6991     005D  1903               	skipnz
  6992     005E  2E0C               	goto	L11
  6993     005F  282A               	goto	i1l3123
  6994     0060                     i1l151:
  6995     0060  1283               	bcf	3,5	;RP0=0, select bank0
  6996     0061  1C0C               	btfss	12,0	;volatile
  6997     0062  2864               	goto	u117_21
  6998     0063  2865               	goto	u117_20
  6999     0064                     u117_21:
  7000     0064  2DF6               	goto	i1l150
  7001     0065                     u117_20:
  7002     0065                     i1l3129:
  7003     0065  1683               	bsf	3,5	;RP0=1, select bank1
  7004     0066  1303               	bcf	3,6	;RP1=0, select bank1
  7005     0067  1C0C               	btfss	12,0	;volatile
  7006     0068  286A               	goto	u118_21
  7007     0069  286B               	goto	u118_20
  7008     006A                     u118_21:
  7009     006A  2DF6               	goto	i1l150
  7010     006B                     u118_20:
  7011     006B                     i1l3131:
  7012                           
  7013                           ;Digitizer24bitsV1.c: 427:         PORTAbits.RA2 = 1;
  7014     006B  1283               	bcf	3,5	;RP0=0, select bank0
  7015     006C  1303               	bcf	3,6	;RP1=0, select bank0
  7016     006D  1505               	bsf	5,2	;volatile
  7017                           
  7018                           ;Digitizer24bitsV1.c: 429:         PIR1bits.TMR1IF = 0;
  7019     006E  100C               	bcf	12,0	;volatile
  7020     006F                     i1l3133:
  7021                           
  7022                           ;Digitizer24bitsV1.c: 430:         TMR1H = 0x10;
  7023     006F  3010               	movlw	16
  7024     0070  008F               	movwf	15	;volatile
  7025                           
  7026                           ;Digitizer24bitsV1.c: 431:         TMR1L = 0x06;
  7027     0071  3006               	movlw	6
  7028     0072  008E               	movwf	14	;volatile
  7029     0073                     i1l3135:
  7030                           
  7031                           ;Digitizer24bitsV1.c: 432:         ContaSample++;
  7032     0073  3001               	movlw	1
  7033     0074  00FF               	movwf	btemp+1
  7034     0075  087F               	movf	btemp+1,w
  7035     0076  07CC               	addwf	_ContaSample,f
  7036     0077                     i1l3137:
  7037                           
  7038                           ;Digitizer24bitsV1.c: 436:         CleanHolding();
  7039     0077  160A  118A  212B  120A  118A  	fcall	_CleanHolding
  7040     007C                     i1l3139:
  7041                           
  7042                           ;Digitizer24bitsV1.c: 438:         PORTB = 0x38;
  7043     007C  3038               	movlw	56
  7044     007D  1283               	bcf	3,5	;RP0=0, select bank0
  7045     007E  1303               	bcf	3,6	;RP1=0, select bank0
  7046     007F  0086               	movwf	6	;volatile
  7047     0080                     i1l3141:
  7048                           
  7049                           ;Digitizer24bitsV1.c: 439:         PORTBbits.RB7 = 1;
  7050     0080  1786               	bsf	6,7	;volatile
  7051     0081                     i1l3143:
  7052                           
  7053                           ;Digitizer24bitsV1.c: 440:         _delay((unsigned long)((7)*(9830400UL/4000.0)));
  7054     0081  3017               	movlw	23
  7055     0082  1283               	bcf	3,5	;RP0=0, select bank0
  7056     0083  1303               	bcf	3,6	;RP1=0, select bank0
  7057     0084  00E3               	movwf	??_Interrups+1
  7058     0085  3055               	movlw	85
  7059     0086  00E2               	movwf	??_Interrups
  7060     0087                     u147_27:
  7061     0087  0BE2               	decfsz	??_Interrups,f
  7062     0088  2887               	goto	u147_27
  7063     0089  0BE3               	decfsz	??_Interrups+1,f
  7064     008A  2887               	goto	u147_27
  7065     008B  0000               	nop
  7066     008C                     i1l3145:
  7067                           
  7068                           ;Digitizer24bitsV1.c: 441:         SumData_X = 0;
  7069     008C  3000               	movlw	0
  7070     008D  1283               	bcf	3,5	;RP0=0, select bank0
  7071     008E  1303               	bcf	3,6	;RP1=0, select bank0
  7072     008F  00CB               	movwf	_SumData_X+3
  7073     0090  3000               	movlw	0
  7074     0091  00CA               	movwf	_SumData_X+2
  7075     0092  3000               	movlw	0
  7076     0093  00C9               	movwf	_SumData_X+1
  7077     0094  3000               	movlw	0
  7078     0095  00C8               	movwf	_SumData_X
  7079     0096                     i1l3147:
  7080                           
  7081                           ;Digitizer24bitsV1.c: 442:         ReadAD24(0,0x00);
  7082     0096  01D5               	clrf	ReadAD24@cmd_convert
  7083     0097  3000               	movlw	0
  7084     0098  160A  118A  23DE  120A  118A  	fcall	_ReadAD24
  7085     009D                     i1l3149:
  7086                           
  7087                           ;Digitizer24bitsV1.c: 443:         for(conta=0; conta<5; conta++){
  7088     009D  1283               	bcf	3,5	;RP0=0, select bank0
  7089     009E  1303               	bcf	3,6	;RP1=0, select bank0
  7090     009F  01EB               	clrf	Interrups@conta
  7091     00A0                     i1l3151:
  7092     00A0  3005               	movlw	5
  7093     00A1  026B               	subwf	Interrups@conta,w
  7094     00A2  1C03               	skipc
  7095     00A3  28A5               	goto	u119_21
  7096     00A4  28A6               	goto	u119_20
  7097     00A5                     u119_21:
  7098     00A5  28A7               	goto	i1l3155
  7099     00A6                     u119_20:
  7100     00A6  28E0               	goto	i1l186
  7101     00A7                     i1l3155:
  7102                           
  7103                           ;Digitizer24bitsV1.c: 444:             Data_X = ReadAD24(1,0x00);
  7104     00A7  01D5               	clrf	ReadAD24@cmd_convert
  7105     00A8  3001               	movlw	1
  7106     00A9  160A  118A  23DE  120A  118A  	fcall	_ReadAD24
  7107     00AE  1283               	bcf	3,5	;RP0=0, select bank0
  7108     00AF  1303               	bcf	3,6	;RP1=0, select bank0
  7109     00B0  0858               	movf	?_ReadAD24+3,w
  7110     00B1  00B7               	movwf	_Data_X+3
  7111     00B2  0857               	movf	?_ReadAD24+2,w
  7112     00B3  00B6               	movwf	_Data_X+2
  7113     00B4  0856               	movf	?_ReadAD24+1,w
  7114     00B5  00B5               	movwf	_Data_X+1
  7115     00B6  0855               	movf	?_ReadAD24,w
  7116     00B7  00B4               	movwf	_Data_X
  7117     00B8                     i1l3157:
  7118                           
  7119                           ;Digitizer24bitsV1.c: 445:             SumData_X = SumData_X + Data_X;
  7120     00B8  0848               	movf	_SumData_X,w
  7121     00B9  0734               	addwf	_Data_X,w
  7122     00BA  00E2               	movwf	??_Interrups
  7123     00BB  3000               	movlw	0
  7124     00BC  1803               	skipnc
  7125     00BD  3001               	movlw	1
  7126     00BE  0749               	addwf	_SumData_X+1,w
  7127     00BF  01E4               	clrf	??_Interrups+2
  7128     00C0  1803               	skipnc
  7129     00C1  0AE4               	incf	??_Interrups+2,f
  7130     00C2  0735               	addwf	_Data_X+1,w
  7131     00C3  00E3               	movwf	??_Interrups+1
  7132     00C4  1803               	skipnc
  7133     00C5  0AE4               	incf	??_Interrups+2,f
  7134     00C6  084A               	movf	_SumData_X+2,w
  7135     00C7  0764               	addwf	??_Interrups+2,w
  7136     00C8  01E5               	clrf	??_Interrups+3
  7137     00C9  1803               	skipnc
  7138     00CA  0AE5               	incf	??_Interrups+3,f
  7139     00CB  0736               	addwf	_Data_X+2,w
  7140     00CC  00E4               	movwf	??_Interrups+2
  7141     00CD  1803               	skipnc
  7142     00CE  0AE5               	incf	??_Interrups+3,f
  7143     00CF  084B               	movf	_SumData_X+3,w
  7144     00D0  0765               	addwf	??_Interrups+3,w
  7145     00D1  0737               	addwf	_Data_X+3,w
  7146     00D2  00E5               	movwf	??_Interrups+3
  7147     00D3  0865               	movf	??_Interrups+3,w
  7148     00D4  00CB               	movwf	_SumData_X+3
  7149     00D5  0864               	movf	??_Interrups+2,w
  7150     00D6  00CA               	movwf	_SumData_X+2
  7151     00D7  0863               	movf	??_Interrups+1,w
  7152     00D8  00C9               	movwf	_SumData_X+1
  7153     00D9  0862               	movf	??_Interrups,w
  7154     00DA  00C8               	movwf	_SumData_X
  7155     00DB                     i1l3159:
  7156                           
  7157                           ;Digitizer24bitsV1.c: 446:         }
  7158     00DB  3001               	movlw	1
  7159     00DC  00FF               	movwf	btemp+1
  7160     00DD  087F               	movf	btemp+1,w
  7161     00DE  07EB               	addwf	Interrups@conta,f
  7162     00DF  28A0               	goto	i1l3151
  7163     00E0                     i1l186:
  7164                           
  7165                           ;Digitizer24bitsV1.c: 447:         PORTBbits.RB7 = 0;
  7166     00E0  1386               	bcf	6,7	;volatile
  7167     00E1                     i1l3163:
  7168                           
  7169                           ;Digitizer24bitsV1.c: 449:         CleanHolding();
  7170     00E1  160A  118A  212B  120A  118A  	fcall	_CleanHolding
  7171     00E6                     i1l3165:
  7172                           
  7173                           ;Digitizer24bitsV1.c: 451:         PORTB = 0x18;
  7174     00E6  3018               	movlw	24
  7175     00E7  1283               	bcf	3,5	;RP0=0, select bank0
  7176     00E8  1303               	bcf	3,6	;RP1=0, select bank0
  7177     00E9  0086               	movwf	6	;volatile
  7178     00EA                     i1l3167:
  7179                           
  7180                           ;Digitizer24bitsV1.c: 452:         _delay((unsigned long)((7)*(9830400UL/4000.0)));
  7181     00EA  3017               	movlw	23
  7182     00EB  1283               	bcf	3,5	;RP0=0, select bank0
  7183     00EC  1303               	bcf	3,6	;RP1=0, select bank0
  7184     00ED  00E3               	movwf	??_Interrups+1
  7185     00EE  3055               	movlw	85
  7186     00EF  00E2               	movwf	??_Interrups
  7187     00F0                     u148_27:
  7188     00F0  0BE2               	decfsz	??_Interrups,f
  7189     00F1  28F0               	goto	u148_27
  7190     00F2  0BE3               	decfsz	??_Interrups+1,f
  7191     00F3  28F0               	goto	u148_27
  7192     00F4  0000               	nop
  7193     00F5                     i1l3169:
  7194                           
  7195                           ;Digitizer24bitsV1.c: 453:         SumData_Y = 0;
  7196     00F5  3000               	movlw	0
  7197     00F6  1283               	bcf	3,5	;RP0=0, select bank0
  7198     00F7  1303               	bcf	3,6	;RP1=0, select bank0
  7199     00F8  00C7               	movwf	_SumData_Y+3
  7200     00F9  3000               	movlw	0
  7201     00FA  00C6               	movwf	_SumData_Y+2
  7202     00FB  3000               	movlw	0
  7203     00FC  00C5               	movwf	_SumData_Y+1
  7204     00FD  3000               	movlw	0
  7205     00FE  00C4               	movwf	_SumData_Y
  7206     00FF                     i1l3171:
  7207                           
  7208                           ;Digitizer24bitsV1.c: 454:         ReadAD24(0,0x00);
  7209     00FF  01D5               	clrf	ReadAD24@cmd_convert
  7210     0100  3000               	movlw	0
  7211     0101  160A  118A  23DE  120A  118A  	fcall	_ReadAD24
  7212     0106                     i1l3173:
  7213                           
  7214                           ;Digitizer24bitsV1.c: 455:         for(conta=0; conta<5; conta++){
  7215     0106  1283               	bcf	3,5	;RP0=0, select bank0
  7216     0107  1303               	bcf	3,6	;RP1=0, select bank0
  7217     0108  01EB               	clrf	Interrups@conta
  7218     0109                     i1l3175:
  7219     0109  3005               	movlw	5
  7220     010A  026B               	subwf	Interrups@conta,w
  7221     010B  1C03               	skipc
  7222     010C  290E               	goto	u120_21
  7223     010D  290F               	goto	u120_20
  7224     010E                     u120_21:
  7225     010E  2910               	goto	i1l3179
  7226     010F                     u120_20:
  7227     010F  2949               	goto	i1l3187
  7228     0110                     i1l3179:
  7229                           
  7230                           ;Digitizer24bitsV1.c: 456:             Data_Y = ReadAD24(1,0x00);
  7231     0110  01D5               	clrf	ReadAD24@cmd_convert
  7232     0111  3001               	movlw	1
  7233     0112  160A  118A  23DE  120A  118A  	fcall	_ReadAD24
  7234     0117  1283               	bcf	3,5	;RP0=0, select bank0
  7235     0118  1303               	bcf	3,6	;RP1=0, select bank0
  7236     0119  0858               	movf	?_ReadAD24+3,w
  7237     011A  00B3               	movwf	_Data_Y+3
  7238     011B  0857               	movf	?_ReadAD24+2,w
  7239     011C  00B2               	movwf	_Data_Y+2
  7240     011D  0856               	movf	?_ReadAD24+1,w
  7241     011E  00B1               	movwf	_Data_Y+1
  7242     011F  0855               	movf	?_ReadAD24,w
  7243     0120  00B0               	movwf	_Data_Y
  7244     0121                     i1l3181:
  7245                           
  7246                           ;Digitizer24bitsV1.c: 457:             SumData_Y = SumData_Y + Data_Y;
  7247     0121  0844               	movf	_SumData_Y,w
  7248     0122  0730               	addwf	_Data_Y,w
  7249     0123  00E2               	movwf	??_Interrups
  7250     0124  3000               	movlw	0
  7251     0125  1803               	skipnc
  7252     0126  3001               	movlw	1
  7253     0127  0745               	addwf	_SumData_Y+1,w
  7254     0128  01E4               	clrf	??_Interrups+2
  7255     0129  1803               	skipnc
  7256     012A  0AE4               	incf	??_Interrups+2,f
  7257     012B  0731               	addwf	_Data_Y+1,w
  7258     012C  00E3               	movwf	??_Interrups+1
  7259     012D  1803               	skipnc
  7260     012E  0AE4               	incf	??_Interrups+2,f
  7261     012F  0846               	movf	_SumData_Y+2,w
  7262     0130  0764               	addwf	??_Interrups+2,w
  7263     0131  01E5               	clrf	??_Interrups+3
  7264     0132  1803               	skipnc
  7265     0133  0AE5               	incf	??_Interrups+3,f
  7266     0134  0732               	addwf	_Data_Y+2,w
  7267     0135  00E4               	movwf	??_Interrups+2
  7268     0136  1803               	skipnc
  7269     0137  0AE5               	incf	??_Interrups+3,f
  7270     0138  0847               	movf	_SumData_Y+3,w
  7271     0139  0765               	addwf	??_Interrups+3,w
  7272     013A  0733               	addwf	_Data_Y+3,w
  7273     013B  00E5               	movwf	??_Interrups+3
  7274     013C  0865               	movf	??_Interrups+3,w
  7275     013D  00C7               	movwf	_SumData_Y+3
  7276     013E  0864               	movf	??_Interrups+2,w
  7277     013F  00C6               	movwf	_SumData_Y+2
  7278     0140  0863               	movf	??_Interrups+1,w
  7279     0141  00C5               	movwf	_SumData_Y+1
  7280     0142  0862               	movf	??_Interrups,w
  7281     0143  00C4               	movwf	_SumData_Y
  7282     0144                     i1l3183:
  7283                           
  7284                           ;Digitizer24bitsV1.c: 458:         }
  7285     0144  3001               	movlw	1
  7286     0145  00FF               	movwf	btemp+1
  7287     0146  087F               	movf	btemp+1,w
  7288     0147  07EB               	addwf	Interrups@conta,f
  7289     0148  2909               	goto	i1l3175
  7290     0149                     i1l3187:
  7291                           
  7292                           ;Digitizer24bitsV1.c: 460:         CleanHolding();
  7293     0149  160A  118A  212B  120A  118A  	fcall	_CleanHolding
  7294     014E                     i1l3189:
  7295                           
  7296                           ;Digitizer24bitsV1.c: 462:         PORTB = 0x28;
  7297     014E  3028               	movlw	40
  7298     014F  1283               	bcf	3,5	;RP0=0, select bank0
  7299     0150  1303               	bcf	3,6	;RP1=0, select bank0
  7300     0151  0086               	movwf	6	;volatile
  7301     0152                     i1l3191:
  7302                           
  7303                           ;Digitizer24bitsV1.c: 463:         _delay((unsigned long)((7)*(9830400UL/4000.0)));
  7304     0152  3017               	movlw	23
  7305     0153  1283               	bcf	3,5	;RP0=0, select bank0
  7306     0154  1303               	bcf	3,6	;RP1=0, select bank0
  7307     0155  00E3               	movwf	??_Interrups+1
  7308     0156  3055               	movlw	85
  7309     0157  00E2               	movwf	??_Interrups
  7310     0158                     u149_27:
  7311     0158  0BE2               	decfsz	??_Interrups,f
  7312     0159  2958               	goto	u149_27
  7313     015A  0BE3               	decfsz	??_Interrups+1,f
  7314     015B  2958               	goto	u149_27
  7315     015C  0000               	nop
  7316     015D                     i1l3193:
  7317                           
  7318                           ;Digitizer24bitsV1.c: 464:         SumData_Z = 0;
  7319     015D  3000               	movlw	0
  7320     015E  1283               	bcf	3,5	;RP0=0, select bank0
  7321     015F  1303               	bcf	3,6	;RP1=0, select bank0
  7322     0160  00C3               	movwf	_SumData_Z+3
  7323     0161  3000               	movlw	0
  7324     0162  00C2               	movwf	_SumData_Z+2
  7325     0163  3000               	movlw	0
  7326     0164  00C1               	movwf	_SumData_Z+1
  7327     0165  3000               	movlw	0
  7328     0166  00C0               	movwf	_SumData_Z
  7329     0167                     i1l3195:
  7330                           
  7331                           ;Digitizer24bitsV1.c: 465:         ReadAD24(0,0x00);
  7332     0167  01D5               	clrf	ReadAD24@cmd_convert
  7333     0168  3000               	movlw	0
  7334     0169  160A  118A  23DE  120A  118A  	fcall	_ReadAD24
  7335     016E                     i1l3197:
  7336                           
  7337                           ;Digitizer24bitsV1.c: 466:         for(conta=0; conta<5; conta++){
  7338     016E  1283               	bcf	3,5	;RP0=0, select bank0
  7339     016F  1303               	bcf	3,6	;RP1=0, select bank0
  7340     0170  01EB               	clrf	Interrups@conta
  7341     0171                     i1l3199:
  7342     0171  3005               	movlw	5
  7343     0172  026B               	subwf	Interrups@conta,w
  7344     0173  1C03               	skipc
  7345     0174  2976               	goto	u121_21
  7346     0175  2977               	goto	u121_20
  7347     0176                     u121_21:
  7348     0176  2978               	goto	i1l3203
  7349     0177                     u121_20:
  7350     0177  29B1               	goto	i1l3211
  7351     0178                     i1l3203:
  7352                           
  7353                           ;Digitizer24bitsV1.c: 467:             Data_Z = ReadAD24(1,0x00);
  7354     0178  01D5               	clrf	ReadAD24@cmd_convert
  7355     0179  3001               	movlw	1
  7356     017A  160A  118A  23DE  120A  118A  	fcall	_ReadAD24
  7357     017F  1283               	bcf	3,5	;RP0=0, select bank0
  7358     0180  1303               	bcf	3,6	;RP1=0, select bank0
  7359     0181  0858               	movf	?_ReadAD24+3,w
  7360     0182  00AF               	movwf	_Data_Z+3
  7361     0183  0857               	movf	?_ReadAD24+2,w
  7362     0184  00AE               	movwf	_Data_Z+2
  7363     0185  0856               	movf	?_ReadAD24+1,w
  7364     0186  00AD               	movwf	_Data_Z+1
  7365     0187  0855               	movf	?_ReadAD24,w
  7366     0188  00AC               	movwf	_Data_Z
  7367     0189                     i1l3205:
  7368                           
  7369                           ;Digitizer24bitsV1.c: 468:             SumData_Z = SumData_Z + Data_Z;
  7370     0189  0840               	movf	_SumData_Z,w
  7371     018A  072C               	addwf	_Data_Z,w
  7372     018B  00E2               	movwf	??_Interrups
  7373     018C  3000               	movlw	0
  7374     018D  1803               	skipnc
  7375     018E  3001               	movlw	1
  7376     018F  0741               	addwf	_SumData_Z+1,w
  7377     0190  01E4               	clrf	??_Interrups+2
  7378     0191  1803               	skipnc
  7379     0192  0AE4               	incf	??_Interrups+2,f
  7380     0193  072D               	addwf	_Data_Z+1,w
  7381     0194  00E3               	movwf	??_Interrups+1
  7382     0195  1803               	skipnc
  7383     0196  0AE4               	incf	??_Interrups+2,f
  7384     0197  0842               	movf	_SumData_Z+2,w
  7385     0198  0764               	addwf	??_Interrups+2,w
  7386     0199  01E5               	clrf	??_Interrups+3
  7387     019A  1803               	skipnc
  7388     019B  0AE5               	incf	??_Interrups+3,f
  7389     019C  072E               	addwf	_Data_Z+2,w
  7390     019D  00E4               	movwf	??_Interrups+2
  7391     019E  1803               	skipnc
  7392     019F  0AE5               	incf	??_Interrups+3,f
  7393     01A0  0843               	movf	_SumData_Z+3,w
  7394     01A1  0765               	addwf	??_Interrups+3,w
  7395     01A2  072F               	addwf	_Data_Z+3,w
  7396     01A3  00E5               	movwf	??_Interrups+3
  7397     01A4  0865               	movf	??_Interrups+3,w
  7398     01A5  00C3               	movwf	_SumData_Z+3
  7399     01A6  0864               	movf	??_Interrups+2,w
  7400     01A7  00C2               	movwf	_SumData_Z+2
  7401     01A8  0863               	movf	??_Interrups+1,w
  7402     01A9  00C1               	movwf	_SumData_Z+1
  7403     01AA  0862               	movf	??_Interrups,w
  7404     01AB  00C0               	movwf	_SumData_Z
  7405     01AC                     i1l3207:
  7406                           
  7407                           ;Digitizer24bitsV1.c: 469:         }
  7408     01AC  3001               	movlw	1
  7409     01AD  00FF               	movwf	btemp+1
  7410     01AE  087F               	movf	btemp+1,w
  7411     01AF  07EB               	addwf	Interrups@conta,f
  7412     01B0  2971               	goto	i1l3199
  7413     01B1                     i1l3211:
  7414                           
  7415                           ;Digitizer24bitsV1.c: 471:         CleanHolding();
  7416     01B1  160A  118A  212B  120A  118A  	fcall	_CleanHolding
  7417     01B6                     i1l3213:
  7418                           
  7419                           ;Digitizer24bitsV1.c: 473:         PORTB = 0x08;
  7420     01B6  3008               	movlw	8
  7421     01B7  1283               	bcf	3,5	;RP0=0, select bank0
  7422     01B8  1303               	bcf	3,6	;RP1=0, select bank0
  7423     01B9  0086               	movwf	6	;volatile
  7424     01BA                     i1l3215:
  7425                           
  7426                           ;Digitizer24bitsV1.c: 474:         _delay((unsigned long)((7)*(9830400UL/4000.0)));
  7427     01BA  3017               	movlw	23
  7428     01BB  1283               	bcf	3,5	;RP0=0, select bank0
  7429     01BC  1303               	bcf	3,6	;RP1=0, select bank0
  7430     01BD  00E3               	movwf	??_Interrups+1
  7431     01BE  3055               	movlw	85
  7432     01BF  00E2               	movwf	??_Interrups
  7433     01C0                     u150_27:
  7434     01C0  0BE2               	decfsz	??_Interrups,f
  7435     01C1  29C0               	goto	u150_27
  7436     01C2  0BE3               	decfsz	??_Interrups+1,f
  7437     01C3  29C0               	goto	u150_27
  7438     01C4  0000               	nop
  7439     01C5                     i1l3217:
  7440                           
  7441                           ;Digitizer24bitsV1.c: 475:         SumData_TC = 0;
  7442     01C5  3000               	movlw	0
  7443     01C6  1283               	bcf	3,5	;RP0=0, select bank0
  7444     01C7  1303               	bcf	3,6	;RP1=0, select bank0
  7445     01C8  00BF               	movwf	_SumData_TC+3
  7446     01C9  3000               	movlw	0
  7447     01CA  00BE               	movwf	_SumData_TC+2
  7448     01CB  3000               	movlw	0
  7449     01CC  00BD               	movwf	_SumData_TC+1
  7450     01CD  3000               	movlw	0
  7451     01CE  00BC               	movwf	_SumData_TC
  7452     01CF                     i1l3219:
  7453                           
  7454                           ;Digitizer24bitsV1.c: 476:         ReadAD24(0,0x00);
  7455     01CF  01D5               	clrf	ReadAD24@cmd_convert
  7456     01D0  3000               	movlw	0
  7457     01D1  160A  118A  23DE  120A  118A  	fcall	_ReadAD24
  7458     01D6                     i1l3221:
  7459                           
  7460                           ;Digitizer24bitsV1.c: 477:         for(conta=0; conta<5; conta++){
  7461     01D6  1283               	bcf	3,5	;RP0=0, select bank0
  7462     01D7  1303               	bcf	3,6	;RP1=0, select bank0
  7463     01D8  01EB               	clrf	Interrups@conta
  7464     01D9                     i1l3223:
  7465     01D9  3005               	movlw	5
  7466     01DA  026B               	subwf	Interrups@conta,w
  7467     01DB  1C03               	skipc
  7468     01DC  29DE               	goto	u122_21
  7469     01DD  29DF               	goto	u122_20
  7470     01DE                     u122_21:
  7471     01DE  29E0               	goto	i1l3227
  7472     01DF                     u122_20:
  7473     01DF  2A19               	goto	i1l3235
  7474     01E0                     i1l3227:
  7475                           
  7476                           ;Digitizer24bitsV1.c: 478:             Data_TC = ReadAD24(1,0x00);
  7477     01E0  01D5               	clrf	ReadAD24@cmd_convert
  7478     01E1  3001               	movlw	1
  7479     01E2  160A  118A  23DE  120A  118A  	fcall	_ReadAD24
  7480     01E7  1283               	bcf	3,5	;RP0=0, select bank0
  7481     01E8  1303               	bcf	3,6	;RP1=0, select bank0
  7482     01E9  0858               	movf	?_ReadAD24+3,w
  7483     01EA  00AB               	movwf	_Data_TC+3
  7484     01EB  0857               	movf	?_ReadAD24+2,w
  7485     01EC  00AA               	movwf	_Data_TC+2
  7486     01ED  0856               	movf	?_ReadAD24+1,w
  7487     01EE  00A9               	movwf	_Data_TC+1
  7488     01EF  0855               	movf	?_ReadAD24,w
  7489     01F0  00A8               	movwf	_Data_TC
  7490     01F1                     i1l3229:
  7491                           
  7492                           ;Digitizer24bitsV1.c: 479:             SumData_TC = SumData_TC + Data_TC;
  7493     01F1  083C               	movf	_SumData_TC,w
  7494     01F2  0728               	addwf	_Data_TC,w
  7495     01F3  00E2               	movwf	??_Interrups
  7496     01F4  3000               	movlw	0
  7497     01F5  1803               	skipnc
  7498     01F6  3001               	movlw	1
  7499     01F7  073D               	addwf	_SumData_TC+1,w
  7500     01F8  01E4               	clrf	??_Interrups+2
  7501     01F9  1803               	skipnc
  7502     01FA  0AE4               	incf	??_Interrups+2,f
  7503     01FB  0729               	addwf	_Data_TC+1,w
  7504     01FC  00E3               	movwf	??_Interrups+1
  7505     01FD  1803               	skipnc
  7506     01FE  0AE4               	incf	??_Interrups+2,f
  7507     01FF  083E               	movf	_SumData_TC+2,w
  7508     0200  0764               	addwf	??_Interrups+2,w
  7509     0201  01E5               	clrf	??_Interrups+3
  7510     0202  1803               	skipnc
  7511     0203  0AE5               	incf	??_Interrups+3,f
  7512     0204  072A               	addwf	_Data_TC+2,w
  7513     0205  00E4               	movwf	??_Interrups+2
  7514     0206  1803               	skipnc
  7515     0207  0AE5               	incf	??_Interrups+3,f
  7516     0208  083F               	movf	_SumData_TC+3,w
  7517     0209  0765               	addwf	??_Interrups+3,w
  7518     020A  072B               	addwf	_Data_TC+3,w
  7519     020B  00E5               	movwf	??_Interrups+3
  7520     020C  0865               	movf	??_Interrups+3,w
  7521     020D  00BF               	movwf	_SumData_TC+3
  7522     020E  0864               	movf	??_Interrups+2,w
  7523     020F  00BE               	movwf	_SumData_TC+2
  7524     0210  0863               	movf	??_Interrups+1,w
  7525     0211  00BD               	movwf	_SumData_TC+1
  7526     0212  0862               	movf	??_Interrups,w
  7527     0213  00BC               	movwf	_SumData_TC
  7528     0214                     i1l3231:
  7529                           
  7530                           ;Digitizer24bitsV1.c: 480:         }
  7531     0214  3001               	movlw	1
  7532     0215  00FF               	movwf	btemp+1
  7533     0216  087F               	movf	btemp+1,w
  7534     0217  07EB               	addwf	Interrups@conta,f
  7535     0218  29D9               	goto	i1l3223
  7536     0219                     i1l3235:
  7537                           
  7538                           ;Digitizer24bitsV1.c: 482:         CleanHolding();
  7539     0219  160A  118A  212B  120A  118A  	fcall	_CleanHolding
  7540     021E                     i1l3237:
  7541                           
  7542                           ;Digitizer24bitsV1.c: 484:         PORTB = 0x04;
  7543     021E  3004               	movlw	4
  7544     021F  1283               	bcf	3,5	;RP0=0, select bank0
  7545     0220  1303               	bcf	3,6	;RP1=0, select bank0
  7546     0221  0086               	movwf	6	;volatile
  7547     0222                     i1l3239:
  7548                           
  7549                           ;Digitizer24bitsV1.c: 485:         _delay((unsigned long)((7)*(9830400UL/4000.0)));
  7550     0222  3017               	movlw	23
  7551     0223  1283               	bcf	3,5	;RP0=0, select bank0
  7552     0224  1303               	bcf	3,6	;RP1=0, select bank0
  7553     0225  00E3               	movwf	??_Interrups+1
  7554     0226  3055               	movlw	85
  7555     0227  00E2               	movwf	??_Interrups
  7556     0228                     u151_27:
  7557     0228  0BE2               	decfsz	??_Interrups,f
  7558     0229  2A28               	goto	u151_27
  7559     022A  0BE3               	decfsz	??_Interrups+1,f
  7560     022B  2A28               	goto	u151_27
  7561     022C  0000               	nop
  7562     022D                     i1l3241:
  7563                           
  7564                           ;Digitizer24bitsV1.c: 486:         SumData_TS = 0;
  7565     022D  3000               	movlw	0
  7566     022E  1283               	bcf	3,5	;RP0=0, select bank0
  7567     022F  1303               	bcf	3,6	;RP1=0, select bank0
  7568     0230  00BB               	movwf	_SumData_TS+3
  7569     0231  3000               	movlw	0
  7570     0232  00BA               	movwf	_SumData_TS+2
  7571     0233  3000               	movlw	0
  7572     0234  00B9               	movwf	_SumData_TS+1
  7573     0235  3000               	movlw	0
  7574     0236  00B8               	movwf	_SumData_TS
  7575     0237                     i1l3243:
  7576                           
  7577                           ;Digitizer24bitsV1.c: 487:         ReadAD24(0,0x00);
  7578     0237  01D5               	clrf	ReadAD24@cmd_convert
  7579     0238  3000               	movlw	0
  7580     0239  160A  118A  23DE  120A  118A  	fcall	_ReadAD24
  7581     023E                     i1l3245:
  7582                           
  7583                           ;Digitizer24bitsV1.c: 488:         for(conta=0; conta<5; conta++){
  7584     023E  1283               	bcf	3,5	;RP0=0, select bank0
  7585     023F  1303               	bcf	3,6	;RP1=0, select bank0
  7586     0240  01EB               	clrf	Interrups@conta
  7587     0241                     i1l3247:
  7588     0241  3005               	movlw	5
  7589     0242  026B               	subwf	Interrups@conta,w
  7590     0243  1C03               	skipc
  7591     0244  2A46               	goto	u123_21
  7592     0245  2A47               	goto	u123_20
  7593     0246                     u123_21:
  7594     0246  2A48               	goto	i1l3251
  7595     0247                     u123_20:
  7596     0247  2A81               	goto	i1l3259
  7597     0248                     i1l3251:
  7598                           
  7599                           ;Digitizer24bitsV1.c: 489:             Data_TS = ReadAD24(1,0x00);
  7600     0248  01D5               	clrf	ReadAD24@cmd_convert
  7601     0249  3001               	movlw	1
  7602     024A  160A  118A  23DE  120A  118A  	fcall	_ReadAD24
  7603     024F  1283               	bcf	3,5	;RP0=0, select bank0
  7604     0250  1303               	bcf	3,6	;RP1=0, select bank0
  7605     0251  0858               	movf	?_ReadAD24+3,w
  7606     0252  00A7               	movwf	_Data_TS+3
  7607     0253  0857               	movf	?_ReadAD24+2,w
  7608     0254  00A6               	movwf	_Data_TS+2
  7609     0255  0856               	movf	?_ReadAD24+1,w
  7610     0256  00A5               	movwf	_Data_TS+1
  7611     0257  0855               	movf	?_ReadAD24,w
  7612     0258  00A4               	movwf	_Data_TS
  7613     0259                     i1l3253:
  7614                           
  7615                           ;Digitizer24bitsV1.c: 490:             SumData_TS = SumData_TS + Data_TS;
  7616     0259  0838               	movf	_SumData_TS,w
  7617     025A  0724               	addwf	_Data_TS,w
  7618     025B  00E2               	movwf	??_Interrups
  7619     025C  3000               	movlw	0
  7620     025D  1803               	skipnc
  7621     025E  3001               	movlw	1
  7622     025F  0739               	addwf	_SumData_TS+1,w
  7623     0260  01E4               	clrf	??_Interrups+2
  7624     0261  1803               	skipnc
  7625     0262  0AE4               	incf	??_Interrups+2,f
  7626     0263  0725               	addwf	_Data_TS+1,w
  7627     0264  00E3               	movwf	??_Interrups+1
  7628     0265  1803               	skipnc
  7629     0266  0AE4               	incf	??_Interrups+2,f
  7630     0267  083A               	movf	_SumData_TS+2,w
  7631     0268  0764               	addwf	??_Interrups+2,w
  7632     0269  01E5               	clrf	??_Interrups+3
  7633     026A  1803               	skipnc
  7634     026B  0AE5               	incf	??_Interrups+3,f
  7635     026C  0726               	addwf	_Data_TS+2,w
  7636     026D  00E4               	movwf	??_Interrups+2
  7637     026E  1803               	skipnc
  7638     026F  0AE5               	incf	??_Interrups+3,f
  7639     0270  083B               	movf	_SumData_TS+3,w
  7640     0271  0765               	addwf	??_Interrups+3,w
  7641     0272  0727               	addwf	_Data_TS+3,w
  7642     0273  00E5               	movwf	??_Interrups+3
  7643     0274  0865               	movf	??_Interrups+3,w
  7644     0275  00BB               	movwf	_SumData_TS+3
  7645     0276  0864               	movf	??_Interrups+2,w
  7646     0277  00BA               	movwf	_SumData_TS+2
  7647     0278  0863               	movf	??_Interrups+1,w
  7648     0279  00B9               	movwf	_SumData_TS+1
  7649     027A  0862               	movf	??_Interrups,w
  7650     027B  00B8               	movwf	_SumData_TS
  7651     027C                     i1l3255:
  7652                           
  7653                           ;Digitizer24bitsV1.c: 491:         }
  7654     027C  3001               	movlw	1
  7655     027D  00FF               	movwf	btemp+1
  7656     027E  087F               	movf	btemp+1,w
  7657     027F  07EB               	addwf	Interrups@conta,f
  7658     0280  2A41               	goto	i1l3247
  7659     0281                     i1l3259:
  7660                           
  7661                           ;Digitizer24bitsV1.c: 493:         CleanHolding();
  7662     0281  160A  118A  212B  120A  118A  	fcall	_CleanHolding
  7663     0286                     i1l3261:
  7664                           
  7665                           ;Digitizer24bitsV1.c: 495:         PORTB = 0x34;
  7666     0286  3034               	movlw	52
  7667     0287  1283               	bcf	3,5	;RP0=0, select bank0
  7668     0288  1303               	bcf	3,6	;RP1=0, select bank0
  7669     0289  0086               	movwf	6	;volatile
  7670     028A                     i1l3263:
  7671                           
  7672                           ;Digitizer24bitsV1.c: 496:         _delay((unsigned long)((7)*(9830400UL/4000.0)));
  7673     028A  3017               	movlw	23
  7674     028B  1283               	bcf	3,5	;RP0=0, select bank0
  7675     028C  1303               	bcf	3,6	;RP1=0, select bank0
  7676     028D  00E3               	movwf	??_Interrups+1
  7677     028E  3055               	movlw	85
  7678     028F  00E2               	movwf	??_Interrups
  7679     0290                     u152_27:
  7680     0290  0BE2               	decfsz	??_Interrups,f
  7681     0291  2A90               	goto	u152_27
  7682     0292  0BE3               	decfsz	??_Interrups+1,f
  7683     0293  2A90               	goto	u152_27
  7684     0294  0000               	nop
  7685     0295                     i1l3265:
  7686                           
  7687                           ;Digitizer24bitsV1.c: 497:         SumData_AUX0 = 0;
  7688     0295  3000               	movlw	0
  7689     0296  1283               	bcf	3,5	;RP0=0, select bank0
  7690     0297  1303               	bcf	3,6	;RP1=0, select bank0
  7691     0298  00A3               	movwf	_SumData_AUX0+3
  7692     0299  3000               	movlw	0
  7693     029A  00A2               	movwf	_SumData_AUX0+2
  7694     029B  3000               	movlw	0
  7695     029C  00A1               	movwf	_SumData_AUX0+1
  7696     029D  3000               	movlw	0
  7697     029E  00A0               	movwf	_SumData_AUX0
  7698     029F                     i1l3267:
  7699                           
  7700                           ;Digitizer24bitsV1.c: 498:         ReadAD24(0,0x00);
  7701     029F  01D5               	clrf	ReadAD24@cmd_convert
  7702     02A0  3000               	movlw	0
  7703     02A1  160A  118A  23DE  120A  118A  	fcall	_ReadAD24
  7704     02A6                     i1l3269:
  7705                           
  7706                           ;Digitizer24bitsV1.c: 499:         for(conta=0; conta<5; conta++){
  7707     02A6  1283               	bcf	3,5	;RP0=0, select bank0
  7708     02A7  1303               	bcf	3,6	;RP1=0, select bank0
  7709     02A8  01EB               	clrf	Interrups@conta
  7710     02A9                     i1l3271:
  7711     02A9  3005               	movlw	5
  7712     02AA  026B               	subwf	Interrups@conta,w
  7713     02AB  1C03               	skipc
  7714     02AC  2AAE               	goto	u124_21
  7715     02AD  2AAF               	goto	u124_20
  7716     02AE                     u124_21:
  7717     02AE  2AB0               	goto	i1l3275
  7718     02AF                     u124_20:
  7719     02AF  2B09               	goto	i1l3283
  7720     02B0                     i1l3275:
  7721                           
  7722                           ;Digitizer24bitsV1.c: 500:             Data_AUX0 = ReadAD24(1,0x00);
  7723     02B0  01D5               	clrf	ReadAD24@cmd_convert
  7724     02B1  3001               	movlw	1
  7725     02B2  160A  118A  23DE  120A  118A  	fcall	_ReadAD24
  7726     02B7  1283               	bcf	3,5	;RP0=0, select bank0
  7727     02B8  1303               	bcf	3,6	;RP1=0, select bank0
  7728     02B9  0858               	movf	?_ReadAD24+3,w
  7729     02BA  1683               	bsf	3,5	;RP0=1, select bank1
  7730     02BB  1303               	bcf	3,6	;RP1=0, select bank1
  7731     02BC  00AB               	movwf	(_Data_AUX0+3)^(0+128)
  7732     02BD  1283               	bcf	3,5	;RP0=0, select bank0
  7733     02BE  1303               	bcf	3,6	;RP1=0, select bank0
  7734     02BF  0857               	movf	?_ReadAD24+2,w
  7735     02C0  1683               	bsf	3,5	;RP0=1, select bank1
  7736     02C1  1303               	bcf	3,6	;RP1=0, select bank1
  7737     02C2  00AA               	movwf	(_Data_AUX0+2)^(0+128)
  7738     02C3  1283               	bcf	3,5	;RP0=0, select bank0
  7739     02C4  1303               	bcf	3,6	;RP1=0, select bank0
  7740     02C5  0856               	movf	?_ReadAD24+1,w
  7741     02C6  1683               	bsf	3,5	;RP0=1, select bank1
  7742     02C7  1303               	bcf	3,6	;RP1=0, select bank1
  7743     02C8  00A9               	movwf	(_Data_AUX0+1)^(0+128)
  7744     02C9  1283               	bcf	3,5	;RP0=0, select bank0
  7745     02CA  1303               	bcf	3,6	;RP1=0, select bank0
  7746     02CB  0855               	movf	?_ReadAD24,w
  7747     02CC  1683               	bsf	3,5	;RP0=1, select bank1
  7748     02CD  1303               	bcf	3,6	;RP1=0, select bank1
  7749     02CE  00A8               	movwf	_Data_AUX0^(0+128)
  7750     02CF                     i1l3277:
  7751                           
  7752                           ;Digitizer24bitsV1.c: 501:             SumData_AUX0 = SumData_AUX0 + Data_AUX0;
  7753     02CF  1283               	bcf	3,5	;RP0=0, select bank0
  7754     02D0  1303               	bcf	3,6	;RP1=0, select bank0
  7755     02D1  0820               	movf	_SumData_AUX0,w
  7756     02D2  1683               	bsf	3,5	;RP0=1, select bank1
  7757     02D3  1303               	bcf	3,6	;RP1=0, select bank1
  7758     02D4  0728               	addwf	_Data_AUX0^(0+128),w
  7759     02D5  1283               	bcf	3,5	;RP0=0, select bank0
  7760     02D6  1303               	bcf	3,6	;RP1=0, select bank0
  7761     02D7  00E2               	movwf	??_Interrups
  7762     02D8  3000               	movlw	0
  7763     02D9  1803               	skipnc
  7764     02DA  3001               	movlw	1
  7765     02DB  0721               	addwf	_SumData_AUX0+1,w
  7766     02DC  01E4               	clrf	??_Interrups+2
  7767     02DD  1803               	skipnc
  7768     02DE  0AE4               	incf	??_Interrups+2,f
  7769     02DF  1683               	bsf	3,5	;RP0=1, select bank1
  7770     02E0  1303               	bcf	3,6	;RP1=0, select bank1
  7771     02E1  0729               	addwf	(_Data_AUX0+1)^(0+128),w
  7772     02E2  1283               	bcf	3,5	;RP0=0, select bank0
  7773     02E3  1303               	bcf	3,6	;RP1=0, select bank0
  7774     02E4  00E3               	movwf	??_Interrups+1
  7775     02E5  1803               	skipnc
  7776     02E6  0AE4               	incf	??_Interrups+2,f
  7777     02E7  0822               	movf	_SumData_AUX0+2,w
  7778     02E8  0764               	addwf	??_Interrups+2,w
  7779     02E9  01E5               	clrf	??_Interrups+3
  7780     02EA  1803               	skipnc
  7781     02EB  0AE5               	incf	??_Interrups+3,f
  7782     02EC  1683               	bsf	3,5	;RP0=1, select bank1
  7783     02ED  1303               	bcf	3,6	;RP1=0, select bank1
  7784     02EE  072A               	addwf	(_Data_AUX0+2)^(0+128),w
  7785     02EF  1283               	bcf	3,5	;RP0=0, select bank0
  7786     02F0  1303               	bcf	3,6	;RP1=0, select bank0
  7787     02F1  00E4               	movwf	??_Interrups+2
  7788     02F2  1803               	skipnc
  7789     02F3  0AE5               	incf	??_Interrups+3,f
  7790     02F4  0823               	movf	_SumData_AUX0+3,w
  7791     02F5  0765               	addwf	??_Interrups+3,w
  7792     02F6  1683               	bsf	3,5	;RP0=1, select bank1
  7793     02F7  1303               	bcf	3,6	;RP1=0, select bank1
  7794     02F8  072B               	addwf	(_Data_AUX0+3)^(0+128),w
  7795     02F9  1283               	bcf	3,5	;RP0=0, select bank0
  7796     02FA  1303               	bcf	3,6	;RP1=0, select bank0
  7797     02FB  00E5               	movwf	??_Interrups+3
  7798     02FC  0865               	movf	??_Interrups+3,w
  7799     02FD  00A3               	movwf	_SumData_AUX0+3
  7800     02FE  0864               	movf	??_Interrups+2,w
  7801     02FF  00A2               	movwf	_SumData_AUX0+2
  7802     0300  0863               	movf	??_Interrups+1,w
  7803     0301  00A1               	movwf	_SumData_AUX0+1
  7804     0302  0862               	movf	??_Interrups,w
  7805     0303  00A0               	movwf	_SumData_AUX0
  7806     0304                     i1l3279:
  7807                           
  7808                           ;Digitizer24bitsV1.c: 502:         }
  7809     0304  3001               	movlw	1
  7810     0305  00FF               	movwf	btemp+1
  7811     0306  087F               	movf	btemp+1,w
  7812     0307  07EB               	addwf	Interrups@conta,f
  7813     0308  2AA9               	goto	i1l3271
  7814     0309                     i1l3283:
  7815                           
  7816                           ;Digitizer24bitsV1.c: 504:          CleanHolding();
  7817     0309  160A  118A  212B  120A  118A  	fcall	_CleanHolding
  7818     030E                     i1l3285:
  7819                           
  7820                           ;Digitizer24bitsV1.c: 506:         PORTB = 0x14;
  7821     030E  3014               	movlw	20
  7822     030F  1283               	bcf	3,5	;RP0=0, select bank0
  7823     0310  1303               	bcf	3,6	;RP1=0, select bank0
  7824     0311  0086               	movwf	6	;volatile
  7825     0312                     i1l3287:
  7826                           
  7827                           ;Digitizer24bitsV1.c: 507:         _delay((unsigned long)((7)*(9830400UL/4000.0)));
  7828     0312  3017               	movlw	23
  7829     0313  1283               	bcf	3,5	;RP0=0, select bank0
  7830     0314  1303               	bcf	3,6	;RP1=0, select bank0
  7831     0315  00E3               	movwf	??_Interrups+1
  7832     0316  3055               	movlw	85
  7833     0317  00E2               	movwf	??_Interrups
  7834     0318                     u153_27:
  7835     0318  0BE2               	decfsz	??_Interrups,f
  7836     0319  2B18               	goto	u153_27
  7837     031A  0BE3               	decfsz	??_Interrups+1,f
  7838     031B  2B18               	goto	u153_27
  7839     031C  0000               	nop
  7840     031D                     i1l3289:
  7841                           
  7842                           ;Digitizer24bitsV1.c: 508:         SumData_AUX1 = 0;
  7843     031D  3000               	movlw	0
  7844     031E  1683               	bsf	3,5	;RP0=1, select bank1
  7845     031F  1303               	bcf	3,6	;RP1=0, select bank1
  7846     0320  00B3               	movwf	(_SumData_AUX1+3)^(0+128)
  7847     0321  3000               	movlw	0
  7848     0322  00B2               	movwf	(_SumData_AUX1+2)^(0+128)
  7849     0323  3000               	movlw	0
  7850     0324  00B1               	movwf	(_SumData_AUX1+1)^(0+128)
  7851     0325  3000               	movlw	0
  7852     0326  00B0               	movwf	_SumData_AUX1^(0+128)
  7853     0327                     i1l3291:
  7854                           
  7855                           ;Digitizer24bitsV1.c: 509:         ReadAD24(0,0x00);
  7856     0327  1283               	bcf	3,5	;RP0=0, select bank0
  7857     0328  1303               	bcf	3,6	;RP1=0, select bank0
  7858     0329  01D5               	clrf	ReadAD24@cmd_convert
  7859     032A  3000               	movlw	0
  7860     032B  160A  118A  23DE  120A  118A  	fcall	_ReadAD24
  7861     0330                     i1l3293:
  7862                           
  7863                           ;Digitizer24bitsV1.c: 510:         for(conta=0; conta<5; conta++){
  7864     0330  1283               	bcf	3,5	;RP0=0, select bank0
  7865     0331  1303               	bcf	3,6	;RP1=0, select bank0
  7866     0332  01EB               	clrf	Interrups@conta
  7867     0333                     i1l3295:
  7868     0333  3005               	movlw	5
  7869     0334  026B               	subwf	Interrups@conta,w
  7870     0335  1C03               	skipc
  7871     0336  2B38               	goto	u125_21
  7872     0337  2B39               	goto	u125_20
  7873     0338                     u125_21:
  7874     0338  2B3A               	goto	i1l3299
  7875     0339                     u125_20:
  7876     0339  2BAB               	goto	i1l3307
  7877     033A                     i1l3299:
  7878                           
  7879                           ;Digitizer24bitsV1.c: 511:             Data_AUX1 = ReadAD24(1,0x00);
  7880     033A  01D5               	clrf	ReadAD24@cmd_convert
  7881     033B  3001               	movlw	1
  7882     033C  160A  118A  23DE  120A  118A  	fcall	_ReadAD24
  7883     0341  1283               	bcf	3,5	;RP0=0, select bank0
  7884     0342  1303               	bcf	3,6	;RP1=0, select bank0
  7885     0343  0858               	movf	?_ReadAD24+3,w
  7886     0344  1683               	bsf	3,5	;RP0=1, select bank1
  7887     0345  1303               	bcf	3,6	;RP1=0, select bank1
  7888     0346  00A7               	movwf	(_Data_AUX1+3)^(0+128)
  7889     0347  1283               	bcf	3,5	;RP0=0, select bank0
  7890     0348  1303               	bcf	3,6	;RP1=0, select bank0
  7891     0349  0857               	movf	?_ReadAD24+2,w
  7892     034A  1683               	bsf	3,5	;RP0=1, select bank1
  7893     034B  1303               	bcf	3,6	;RP1=0, select bank1
  7894     034C  00A6               	movwf	(_Data_AUX1+2)^(0+128)
  7895     034D  1283               	bcf	3,5	;RP0=0, select bank0
  7896     034E  1303               	bcf	3,6	;RP1=0, select bank0
  7897     034F  0856               	movf	?_ReadAD24+1,w
  7898     0350  1683               	bsf	3,5	;RP0=1, select bank1
  7899     0351  1303               	bcf	3,6	;RP1=0, select bank1
  7900     0352  00A5               	movwf	(_Data_AUX1+1)^(0+128)
  7901     0353  1283               	bcf	3,5	;RP0=0, select bank0
  7902     0354  1303               	bcf	3,6	;RP1=0, select bank0
  7903     0355  0855               	movf	?_ReadAD24,w
  7904     0356  1683               	bsf	3,5	;RP0=1, select bank1
  7905     0357  1303               	bcf	3,6	;RP1=0, select bank1
  7906     0358  00A4               	movwf	_Data_AUX1^(0+128)
  7907     0359                     i1l3301:
  7908                           
  7909                           ;Digitizer24bitsV1.c: 512:             SumData_AUX1 = SumData_AUX1 + Data_AUX1;
  7910     0359  0830               	movf	_SumData_AUX1^(0+128),w
  7911     035A  0724               	addwf	_Data_AUX1^(0+128),w
  7912     035B  1283               	bcf	3,5	;RP0=0, select bank0
  7913     035C  1303               	bcf	3,6	;RP1=0, select bank0
  7914     035D  00E2               	movwf	??_Interrups
  7915     035E  3000               	movlw	0
  7916     035F  1803               	skipnc
  7917     0360  3001               	movlw	1
  7918     0361  1683               	bsf	3,5	;RP0=1, select bank1
  7919     0362  1303               	bcf	3,6	;RP1=0, select bank1
  7920     0363  0731               	addwf	(_SumData_AUX1+1)^(0+128),w
  7921     0364  1283               	bcf	3,5	;RP0=0, select bank0
  7922     0365  1303               	bcf	3,6	;RP1=0, select bank0
  7923     0366  01E4               	clrf	??_Interrups+2
  7924     0367  1803               	skipnc
  7925     0368  0AE4               	incf	??_Interrups+2,f
  7926     0369  1683               	bsf	3,5	;RP0=1, select bank1
  7927     036A  1303               	bcf	3,6	;RP1=0, select bank1
  7928     036B  0725               	addwf	(_Data_AUX1+1)^(0+128),w
  7929     036C  1283               	bcf	3,5	;RP0=0, select bank0
  7930     036D  1303               	bcf	3,6	;RP1=0, select bank0
  7931     036E  00E3               	movwf	??_Interrups+1
  7932     036F  1803               	skipnc
  7933     0370  0AE4               	incf	??_Interrups+2,f
  7934     0371  1683               	bsf	3,5	;RP0=1, select bank1
  7935     0372  1303               	bcf	3,6	;RP1=0, select bank1
  7936     0373  0832               	movf	(_SumData_AUX1+2)^(0+128),w
  7937     0374  1283               	bcf	3,5	;RP0=0, select bank0
  7938     0375  1303               	bcf	3,6	;RP1=0, select bank0
  7939     0376  0764               	addwf	??_Interrups+2,w
  7940     0377  01E5               	clrf	??_Interrups+3
  7941     0378  1803               	skipnc
  7942     0379  0AE5               	incf	??_Interrups+3,f
  7943     037A  1683               	bsf	3,5	;RP0=1, select bank1
  7944     037B  1303               	bcf	3,6	;RP1=0, select bank1
  7945     037C  0726               	addwf	(_Data_AUX1+2)^(0+128),w
  7946     037D  1283               	bcf	3,5	;RP0=0, select bank0
  7947     037E  1303               	bcf	3,6	;RP1=0, select bank0
  7948     037F  00E4               	movwf	??_Interrups+2
  7949     0380  1803               	skipnc
  7950     0381  0AE5               	incf	??_Interrups+3,f
  7951     0382  1683               	bsf	3,5	;RP0=1, select bank1
  7952     0383  1303               	bcf	3,6	;RP1=0, select bank1
  7953     0384  0833               	movf	(_SumData_AUX1+3)^(0+128),w
  7954     0385  1283               	bcf	3,5	;RP0=0, select bank0
  7955     0386  1303               	bcf	3,6	;RP1=0, select bank0
  7956     0387  0765               	addwf	??_Interrups+3,w
  7957     0388  1683               	bsf	3,5	;RP0=1, select bank1
  7958     0389  1303               	bcf	3,6	;RP1=0, select bank1
  7959     038A  0727               	addwf	(_Data_AUX1+3)^(0+128),w
  7960     038B  1283               	bcf	3,5	;RP0=0, select bank0
  7961     038C  1303               	bcf	3,6	;RP1=0, select bank0
  7962     038D  00E5               	movwf	??_Interrups+3
  7963     038E  0865               	movf	??_Interrups+3,w
  7964     038F  1683               	bsf	3,5	;RP0=1, select bank1
  7965     0390  1303               	bcf	3,6	;RP1=0, select bank1
  7966     0391  00B3               	movwf	(_SumData_AUX1+3)^(0+128)
  7967     0392  1283               	bcf	3,5	;RP0=0, select bank0
  7968     0393  1303               	bcf	3,6	;RP1=0, select bank0
  7969     0394  0864               	movf	??_Interrups+2,w
  7970     0395  1683               	bsf	3,5	;RP0=1, select bank1
  7971     0396  1303               	bcf	3,6	;RP1=0, select bank1
  7972     0397  00B2               	movwf	(_SumData_AUX1+2)^(0+128)
  7973     0398  1283               	bcf	3,5	;RP0=0, select bank0
  7974     0399  1303               	bcf	3,6	;RP1=0, select bank0
  7975     039A  0863               	movf	??_Interrups+1,w
  7976     039B  1683               	bsf	3,5	;RP0=1, select bank1
  7977     039C  1303               	bcf	3,6	;RP1=0, select bank1
  7978     039D  00B1               	movwf	(_SumData_AUX1+1)^(0+128)
  7979     039E  1283               	bcf	3,5	;RP0=0, select bank0
  7980     039F  1303               	bcf	3,6	;RP1=0, select bank0
  7981     03A0  0862               	movf	??_Interrups,w
  7982     03A1  1683               	bsf	3,5	;RP0=1, select bank1
  7983     03A2  1303               	bcf	3,6	;RP1=0, select bank1
  7984     03A3  00B0               	movwf	_SumData_AUX1^(0+128)
  7985     03A4                     i1l3303:
  7986                           
  7987                           ;Digitizer24bitsV1.c: 513:         }
  7988     03A4  3001               	movlw	1
  7989     03A5  00FF               	movwf	btemp+1
  7990     03A6  087F               	movf	btemp+1,w
  7991     03A7  1283               	bcf	3,5	;RP0=0, select bank0
  7992     03A8  1303               	bcf	3,6	;RP1=0, select bank0
  7993     03A9  07EB               	addwf	Interrups@conta,f
  7994     03AA  2B33               	goto	i1l3295
  7995     03AB                     i1l3307:
  7996                           
  7997                           ;Digitizer24bitsV1.c: 515:          CleanHolding();
  7998     03AB  160A  118A  212B  120A  118A  	fcall	_CleanHolding
  7999     03B0                     i1l3309:
  8000                           
  8001                           ;Digitizer24bitsV1.c: 517:         PORTB = 0x24;
  8002     03B0  3024               	movlw	36
  8003     03B1  1283               	bcf	3,5	;RP0=0, select bank0
  8004     03B2  1303               	bcf	3,6	;RP1=0, select bank0
  8005     03B3  0086               	movwf	6	;volatile
  8006     03B4                     i1l3311:
  8007                           
  8008                           ;Digitizer24bitsV1.c: 518:         _delay((unsigned long)((7)*(9830400UL/4000.0)));
  8009     03B4  3017               	movlw	23
  8010     03B5  1283               	bcf	3,5	;RP0=0, select bank0
  8011     03B6  1303               	bcf	3,6	;RP1=0, select bank0
  8012     03B7  00E3               	movwf	??_Interrups+1
  8013     03B8  3055               	movlw	85
  8014     03B9  00E2               	movwf	??_Interrups
  8015     03BA                     u154_27:
  8016     03BA  0BE2               	decfsz	??_Interrups,f
  8017     03BB  2BBA               	goto	u154_27
  8018     03BC  0BE3               	decfsz	??_Interrups+1,f
  8019     03BD  2BBA               	goto	u154_27
  8020     03BE  0000               	nop
  8021     03BF                     i1l3313:
  8022                           
  8023                           ;Digitizer24bitsV1.c: 519:         SumData_AUX2 = 0;
  8024     03BF  3000               	movlw	0
  8025     03C0  1683               	bsf	3,5	;RP0=1, select bank1
  8026     03C1  1303               	bcf	3,6	;RP1=0, select bank1
  8027     03C2  00AF               	movwf	(_SumData_AUX2+3)^(0+128)
  8028     03C3  3000               	movlw	0
  8029     03C4  00AE               	movwf	(_SumData_AUX2+2)^(0+128)
  8030     03C5  3000               	movlw	0
  8031     03C6  00AD               	movwf	(_SumData_AUX2+1)^(0+128)
  8032     03C7  3000               	movlw	0
  8033     03C8  00AC               	movwf	_SumData_AUX2^(0+128)
  8034     03C9                     i1l3315:
  8035                           
  8036                           ;Digitizer24bitsV1.c: 520:         ReadAD24(0,0x00);
  8037     03C9  1283               	bcf	3,5	;RP0=0, select bank0
  8038     03CA  1303               	bcf	3,6	;RP1=0, select bank0
  8039     03CB  01D5               	clrf	ReadAD24@cmd_convert
  8040     03CC  3000               	movlw	0
  8041     03CD  160A  118A  23DE  120A  118A  	fcall	_ReadAD24
  8042     03D2                     i1l3317:
  8043                           
  8044                           ;Digitizer24bitsV1.c: 521:         for(conta=0; conta<5; conta++){
  8045     03D2  1283               	bcf	3,5	;RP0=0, select bank0
  8046     03D3  1303               	bcf	3,6	;RP1=0, select bank0
  8047     03D4  01EB               	clrf	Interrups@conta
  8048     03D5                     i1l3319:
  8049     03D5  3005               	movlw	5
  8050     03D6  026B               	subwf	Interrups@conta,w
  8051     03D7  1C03               	skipc
  8052     03D8  2BDA               	goto	u126_21
  8053     03D9  2BDB               	goto	u126_20
  8054     03DA                     u126_21:
  8055     03DA  2BDC               	goto	i1l3323
  8056     03DB                     u126_20:
  8057     03DB  2C4D               	goto	i1l3331
  8058     03DC                     i1l3323:
  8059                           
  8060                           ;Digitizer24bitsV1.c: 522:             Data_AUX2 = ReadAD24(1,0x00);
  8061     03DC  01D5               	clrf	ReadAD24@cmd_convert
  8062     03DD  3001               	movlw	1
  8063     03DE  160A  118A  23DE  120A  118A  	fcall	_ReadAD24
  8064     03E3  1283               	bcf	3,5	;RP0=0, select bank0
  8065     03E4  1303               	bcf	3,6	;RP1=0, select bank0
  8066     03E5  0858               	movf	?_ReadAD24+3,w
  8067     03E6  1683               	bsf	3,5	;RP0=1, select bank1
  8068     03E7  1303               	bcf	3,6	;RP1=0, select bank1
  8069     03E8  00A3               	movwf	(_Data_AUX2+3)^(0+128)
  8070     03E9  1283               	bcf	3,5	;RP0=0, select bank0
  8071     03EA  1303               	bcf	3,6	;RP1=0, select bank0
  8072     03EB  0857               	movf	?_ReadAD24+2,w
  8073     03EC  1683               	bsf	3,5	;RP0=1, select bank1
  8074     03ED  1303               	bcf	3,6	;RP1=0, select bank1
  8075     03EE  00A2               	movwf	(_Data_AUX2+2)^(0+128)
  8076     03EF  1283               	bcf	3,5	;RP0=0, select bank0
  8077     03F0  1303               	bcf	3,6	;RP1=0, select bank0
  8078     03F1  0856               	movf	?_ReadAD24+1,w
  8079     03F2  1683               	bsf	3,5	;RP0=1, select bank1
  8080     03F3  1303               	bcf	3,6	;RP1=0, select bank1
  8081     03F4  00A1               	movwf	(_Data_AUX2+1)^(0+128)
  8082     03F5  1283               	bcf	3,5	;RP0=0, select bank0
  8083     03F6  1303               	bcf	3,6	;RP1=0, select bank0
  8084     03F7  0855               	movf	?_ReadAD24,w
  8085     03F8  1683               	bsf	3,5	;RP0=1, select bank1
  8086     03F9  1303               	bcf	3,6	;RP1=0, select bank1
  8087     03FA  00A0               	movwf	_Data_AUX2^(0+128)
  8088     03FB                     i1l3325:
  8089                           
  8090                           ;Digitizer24bitsV1.c: 523:             SumData_AUX2 = SumData_AUX2 + Data_AUX2;
  8091     03FB  082C               	movf	_SumData_AUX2^(0+128),w
  8092     03FC  0720               	addwf	_Data_AUX2^(0+128),w
  8093     03FD  1283               	bcf	3,5	;RP0=0, select bank0
  8094     03FE  1303               	bcf	3,6	;RP1=0, select bank0
  8095     03FF  00E2               	movwf	??_Interrups
  8096     0400  3000               	movlw	0
  8097     0401  1803               	skipnc
  8098     0402  3001               	movlw	1
  8099     0403  1683               	bsf	3,5	;RP0=1, select bank1
  8100     0404  1303               	bcf	3,6	;RP1=0, select bank1
  8101     0405  072D               	addwf	(_SumData_AUX2+1)^(0+128),w
  8102     0406  1283               	bcf	3,5	;RP0=0, select bank0
  8103     0407  1303               	bcf	3,6	;RP1=0, select bank0
  8104     0408  01E4               	clrf	??_Interrups+2
  8105     0409  1803               	skipnc
  8106     040A  0AE4               	incf	??_Interrups+2,f
  8107     040B  1683               	bsf	3,5	;RP0=1, select bank1
  8108     040C  1303               	bcf	3,6	;RP1=0, select bank1
  8109     040D  0721               	addwf	(_Data_AUX2+1)^(0+128),w
  8110     040E  1283               	bcf	3,5	;RP0=0, select bank0
  8111     040F  1303               	bcf	3,6	;RP1=0, select bank0
  8112     0410  00E3               	movwf	??_Interrups+1
  8113     0411  1803               	skipnc
  8114     0412  0AE4               	incf	??_Interrups+2,f
  8115     0413  1683               	bsf	3,5	;RP0=1, select bank1
  8116     0414  1303               	bcf	3,6	;RP1=0, select bank1
  8117     0415  082E               	movf	(_SumData_AUX2+2)^(0+128),w
  8118     0416  1283               	bcf	3,5	;RP0=0, select bank0
  8119     0417  1303               	bcf	3,6	;RP1=0, select bank0
  8120     0418  0764               	addwf	??_Interrups+2,w
  8121     0419  01E5               	clrf	??_Interrups+3
  8122     041A  1803               	skipnc
  8123     041B  0AE5               	incf	??_Interrups+3,f
  8124     041C  1683               	bsf	3,5	;RP0=1, select bank1
  8125     041D  1303               	bcf	3,6	;RP1=0, select bank1
  8126     041E  0722               	addwf	(_Data_AUX2+2)^(0+128),w
  8127     041F  1283               	bcf	3,5	;RP0=0, select bank0
  8128     0420  1303               	bcf	3,6	;RP1=0, select bank0
  8129     0421  00E4               	movwf	??_Interrups+2
  8130     0422  1803               	skipnc
  8131     0423  0AE5               	incf	??_Interrups+3,f
  8132     0424  1683               	bsf	3,5	;RP0=1, select bank1
  8133     0425  1303               	bcf	3,6	;RP1=0, select bank1
  8134     0426  082F               	movf	(_SumData_AUX2+3)^(0+128),w
  8135     0427  1283               	bcf	3,5	;RP0=0, select bank0
  8136     0428  1303               	bcf	3,6	;RP1=0, select bank0
  8137     0429  0765               	addwf	??_Interrups+3,w
  8138     042A  1683               	bsf	3,5	;RP0=1, select bank1
  8139     042B  1303               	bcf	3,6	;RP1=0, select bank1
  8140     042C  0723               	addwf	(_Data_AUX2+3)^(0+128),w
  8141     042D  1283               	bcf	3,5	;RP0=0, select bank0
  8142     042E  1303               	bcf	3,6	;RP1=0, select bank0
  8143     042F  00E5               	movwf	??_Interrups+3
  8144     0430  0865               	movf	??_Interrups+3,w
  8145     0431  1683               	bsf	3,5	;RP0=1, select bank1
  8146     0432  1303               	bcf	3,6	;RP1=0, select bank1
  8147     0433  00AF               	movwf	(_SumData_AUX2+3)^(0+128)
  8148     0434  1283               	bcf	3,5	;RP0=0, select bank0
  8149     0435  1303               	bcf	3,6	;RP1=0, select bank0
  8150     0436  0864               	movf	??_Interrups+2,w
  8151     0437  1683               	bsf	3,5	;RP0=1, select bank1
  8152     0438  1303               	bcf	3,6	;RP1=0, select bank1
  8153     0439  00AE               	movwf	(_SumData_AUX2+2)^(0+128)
  8154     043A  1283               	bcf	3,5	;RP0=0, select bank0
  8155     043B  1303               	bcf	3,6	;RP1=0, select bank0
  8156     043C  0863               	movf	??_Interrups+1,w
  8157     043D  1683               	bsf	3,5	;RP0=1, select bank1
  8158     043E  1303               	bcf	3,6	;RP1=0, select bank1
  8159     043F  00AD               	movwf	(_SumData_AUX2+1)^(0+128)
  8160     0440  1283               	bcf	3,5	;RP0=0, select bank0
  8161     0441  1303               	bcf	3,6	;RP1=0, select bank0
  8162     0442  0862               	movf	??_Interrups,w
  8163     0443  1683               	bsf	3,5	;RP0=1, select bank1
  8164     0444  1303               	bcf	3,6	;RP1=0, select bank1
  8165     0445  00AC               	movwf	_SumData_AUX2^(0+128)
  8166     0446                     i1l3327:
  8167                           
  8168                           ;Digitizer24bitsV1.c: 524:         }
  8169     0446  3001               	movlw	1
  8170     0447  00FF               	movwf	btemp+1
  8171     0448  087F               	movf	btemp+1,w
  8172     0449  1283               	bcf	3,5	;RP0=0, select bank0
  8173     044A  1303               	bcf	3,6	;RP1=0, select bank0
  8174     044B  07EB               	addwf	Interrups@conta,f
  8175     044C  2BD5               	goto	i1l3319
  8176     044D                     i1l3331:
  8177                           
  8178                           ;Digitizer24bitsV1.c: 527:         Data_X = SumData_X/5;
  8179     044D  3000               	movlw	0
  8180     044E  00F3               	movwf	___aldiv@divisor+3
  8181     044F  3000               	movlw	0
  8182     0450  00F2               	movwf	___aldiv@divisor+2
  8183     0451  3000               	movlw	0
  8184     0452  00F1               	movwf	___aldiv@divisor+1
  8185     0453  3005               	movlw	5
  8186     0454  00F0               	movwf	___aldiv@divisor
  8187     0455  084B               	movf	_SumData_X+3,w
  8188     0456  00F7               	movwf	___aldiv@dividend+3
  8189     0457  084A               	movf	_SumData_X+2,w
  8190     0458  00F6               	movwf	___aldiv@dividend+2
  8191     0459  0849               	movf	_SumData_X+1,w
  8192     045A  00F5               	movwf	___aldiv@dividend+1
  8193     045B  0848               	movf	_SumData_X,w
  8194     045C  00F4               	movwf	___aldiv@dividend
  8195     045D  160A  118A  2341  120A  118A  	fcall	___aldiv
  8196     0462  0873               	movf	?___aldiv+3,w
  8197     0463  1283               	bcf	3,5	;RP0=0, select bank0
  8198     0464  1303               	bcf	3,6	;RP1=0, select bank0
  8199     0465  00B7               	movwf	_Data_X+3
  8200     0466  0872               	movf	?___aldiv+2,w
  8201     0467  00B6               	movwf	_Data_X+2
  8202     0468  0871               	movf	?___aldiv+1,w
  8203     0469  00B5               	movwf	_Data_X+1
  8204     046A  0870               	movf	?___aldiv,w
  8205     046B  00B4               	movwf	_Data_X
  8206                           
  8207                           ;Digitizer24bitsV1.c: 528:         Data_Y = SumData_Y/5;
  8208     046C  3000               	movlw	0
  8209     046D  00F3               	movwf	___aldiv@divisor+3
  8210     046E  3000               	movlw	0
  8211     046F  00F2               	movwf	___aldiv@divisor+2
  8212     0470  3000               	movlw	0
  8213     0471  00F1               	movwf	___aldiv@divisor+1
  8214     0472  3005               	movlw	5
  8215     0473  00F0               	movwf	___aldiv@divisor
  8216     0474  0847               	movf	_SumData_Y+3,w
  8217     0475  00F7               	movwf	___aldiv@dividend+3
  8218     0476  0846               	movf	_SumData_Y+2,w
  8219     0477  00F6               	movwf	___aldiv@dividend+2
  8220     0478  0845               	movf	_SumData_Y+1,w
  8221     0479  00F5               	movwf	___aldiv@dividend+1
  8222     047A  0844               	movf	_SumData_Y,w
  8223     047B  00F4               	movwf	___aldiv@dividend
  8224     047C  160A  118A  2341  120A  118A  	fcall	___aldiv
  8225     0481  0873               	movf	?___aldiv+3,w
  8226     0482  1283               	bcf	3,5	;RP0=0, select bank0
  8227     0483  1303               	bcf	3,6	;RP1=0, select bank0
  8228     0484  00B3               	movwf	_Data_Y+3
  8229     0485  0872               	movf	?___aldiv+2,w
  8230     0486  00B2               	movwf	_Data_Y+2
  8231     0487  0871               	movf	?___aldiv+1,w
  8232     0488  00B1               	movwf	_Data_Y+1
  8233     0489  0870               	movf	?___aldiv,w
  8234     048A  00B0               	movwf	_Data_Y
  8235                           
  8236                           ;Digitizer24bitsV1.c: 529:         Data_Z = SumData_Z/5;
  8237     048B  3000               	movlw	0
  8238     048C  00F3               	movwf	___aldiv@divisor+3
  8239     048D  3000               	movlw	0
  8240     048E  00F2               	movwf	___aldiv@divisor+2
  8241     048F  3000               	movlw	0
  8242     0490  00F1               	movwf	___aldiv@divisor+1
  8243     0491  3005               	movlw	5
  8244     0492  00F0               	movwf	___aldiv@divisor
  8245     0493  0843               	movf	_SumData_Z+3,w
  8246     0494  00F7               	movwf	___aldiv@dividend+3
  8247     0495  0842               	movf	_SumData_Z+2,w
  8248     0496  00F6               	movwf	___aldiv@dividend+2
  8249     0497  0841               	movf	_SumData_Z+1,w
  8250     0498  00F5               	movwf	___aldiv@dividend+1
  8251     0499  0840               	movf	_SumData_Z,w
  8252     049A  00F4               	movwf	___aldiv@dividend
  8253     049B  160A  118A  2341  120A  118A  	fcall	___aldiv
  8254     04A0  0873               	movf	?___aldiv+3,w
  8255     04A1  1283               	bcf	3,5	;RP0=0, select bank0
  8256     04A2  1303               	bcf	3,6	;RP1=0, select bank0
  8257     04A3  00AF               	movwf	_Data_Z+3
  8258     04A4  0872               	movf	?___aldiv+2,w
  8259     04A5  00AE               	movwf	_Data_Z+2
  8260     04A6  0871               	movf	?___aldiv+1,w
  8261     04A7  00AD               	movwf	_Data_Z+1
  8262     04A8  0870               	movf	?___aldiv,w
  8263     04A9  00AC               	movwf	_Data_Z
  8264                           
  8265                           ;Digitizer24bitsV1.c: 530:         Data_TC = SumData_TC/5;
  8266     04AA  3000               	movlw	0
  8267     04AB  00F3               	movwf	___aldiv@divisor+3
  8268     04AC  3000               	movlw	0
  8269     04AD  00F2               	movwf	___aldiv@divisor+2
  8270     04AE  3000               	movlw	0
  8271     04AF  00F1               	movwf	___aldiv@divisor+1
  8272     04B0  3005               	movlw	5
  8273     04B1  00F0               	movwf	___aldiv@divisor
  8274     04B2  083F               	movf	_SumData_TC+3,w
  8275     04B3  00F7               	movwf	___aldiv@dividend+3
  8276     04B4  083E               	movf	_SumData_TC+2,w
  8277     04B5  00F6               	movwf	___aldiv@dividend+2
  8278     04B6  083D               	movf	_SumData_TC+1,w
  8279     04B7  00F5               	movwf	___aldiv@dividend+1
  8280     04B8  083C               	movf	_SumData_TC,w
  8281     04B9  00F4               	movwf	___aldiv@dividend
  8282     04BA  160A  118A  2341  120A  118A  	fcall	___aldiv
  8283     04BF  0873               	movf	?___aldiv+3,w
  8284     04C0  1283               	bcf	3,5	;RP0=0, select bank0
  8285     04C1  1303               	bcf	3,6	;RP1=0, select bank0
  8286     04C2  00AB               	movwf	_Data_TC+3
  8287     04C3  0872               	movf	?___aldiv+2,w
  8288     04C4  00AA               	movwf	_Data_TC+2
  8289     04C5  0871               	movf	?___aldiv+1,w
  8290     04C6  00A9               	movwf	_Data_TC+1
  8291     04C7  0870               	movf	?___aldiv,w
  8292     04C8  00A8               	movwf	_Data_TC
  8293                           
  8294                           ;Digitizer24bitsV1.c: 531:         Data_TS = SumData_TS/5;
  8295     04C9  3000               	movlw	0
  8296     04CA  00F3               	movwf	___aldiv@divisor+3
  8297     04CB  3000               	movlw	0
  8298     04CC  00F2               	movwf	___aldiv@divisor+2
  8299     04CD  3000               	movlw	0
  8300     04CE  00F1               	movwf	___aldiv@divisor+1
  8301     04CF  3005               	movlw	5
  8302     04D0  00F0               	movwf	___aldiv@divisor
  8303     04D1  083B               	movf	_SumData_TS+3,w
  8304     04D2  00F7               	movwf	___aldiv@dividend+3
  8305     04D3  083A               	movf	_SumData_TS+2,w
  8306     04D4  00F6               	movwf	___aldiv@dividend+2
  8307     04D5  0839               	movf	_SumData_TS+1,w
  8308     04D6  00F5               	movwf	___aldiv@dividend+1
  8309     04D7  0838               	movf	_SumData_TS,w
  8310     04D8  00F4               	movwf	___aldiv@dividend
  8311     04D9  160A  118A  2341  120A  118A  	fcall	___aldiv
  8312     04DE  0873               	movf	?___aldiv+3,w
  8313     04DF  1283               	bcf	3,5	;RP0=0, select bank0
  8314     04E0  1303               	bcf	3,6	;RP1=0, select bank0
  8315     04E1  00A7               	movwf	_Data_TS+3
  8316     04E2  0872               	movf	?___aldiv+2,w
  8317     04E3  00A6               	movwf	_Data_TS+2
  8318     04E4  0871               	movf	?___aldiv+1,w
  8319     04E5  00A5               	movwf	_Data_TS+1
  8320     04E6  0870               	movf	?___aldiv,w
  8321     04E7  00A4               	movwf	_Data_TS
  8322                           
  8323                           ;Digitizer24bitsV1.c: 532:         Data_AUX0 = SumData_AUX0/5;
  8324     04E8  3000               	movlw	0
  8325     04E9  00F3               	movwf	___aldiv@divisor+3
  8326     04EA  3000               	movlw	0
  8327     04EB  00F2               	movwf	___aldiv@divisor+2
  8328     04EC  3000               	movlw	0
  8329     04ED  00F1               	movwf	___aldiv@divisor+1
  8330     04EE  3005               	movlw	5
  8331     04EF  00F0               	movwf	___aldiv@divisor
  8332     04F0  0823               	movf	_SumData_AUX0+3,w
  8333     04F1  00F7               	movwf	___aldiv@dividend+3
  8334     04F2  0822               	movf	_SumData_AUX0+2,w
  8335     04F3  00F6               	movwf	___aldiv@dividend+2
  8336     04F4  0821               	movf	_SumData_AUX0+1,w
  8337     04F5  00F5               	movwf	___aldiv@dividend+1
  8338     04F6  0820               	movf	_SumData_AUX0,w
  8339     04F7  00F4               	movwf	___aldiv@dividend
  8340     04F8  160A  118A  2341  120A  118A  	fcall	___aldiv
  8341     04FD  0873               	movf	?___aldiv+3,w
  8342     04FE  1683               	bsf	3,5	;RP0=1, select bank1
  8343     04FF  1303               	bcf	3,6	;RP1=0, select bank1
  8344     0500  00AB               	movwf	(_Data_AUX0+3)^(0+128)
  8345     0501  0872               	movf	?___aldiv+2,w
  8346     0502  00AA               	movwf	(_Data_AUX0+2)^(0+128)
  8347     0503  0871               	movf	?___aldiv+1,w
  8348     0504  00A9               	movwf	(_Data_AUX0+1)^(0+128)
  8349     0505  0870               	movf	?___aldiv,w
  8350     0506  00A8               	movwf	_Data_AUX0^(0+128)
  8351                           
  8352                           ;Digitizer24bitsV1.c: 533:         Data_AUX1 = SumData_AUX1/5;
  8353     0507  3000               	movlw	0
  8354     0508  00F3               	movwf	___aldiv@divisor+3
  8355     0509  3000               	movlw	0
  8356     050A  00F2               	movwf	___aldiv@divisor+2
  8357     050B  3000               	movlw	0
  8358     050C  00F1               	movwf	___aldiv@divisor+1
  8359     050D  3005               	movlw	5
  8360     050E  00F0               	movwf	___aldiv@divisor
  8361     050F  0833               	movf	(_SumData_AUX1+3)^(0+128),w
  8362     0510  00F7               	movwf	___aldiv@dividend+3
  8363     0511  0832               	movf	(_SumData_AUX1+2)^(0+128),w
  8364     0512  00F6               	movwf	___aldiv@dividend+2
  8365     0513  0831               	movf	(_SumData_AUX1+1)^(0+128),w
  8366     0514  00F5               	movwf	___aldiv@dividend+1
  8367     0515  0830               	movf	_SumData_AUX1^(0+128),w
  8368     0516  00F4               	movwf	___aldiv@dividend
  8369     0517  160A  118A  2341  120A  118A  	fcall	___aldiv
  8370     051C  0873               	movf	?___aldiv+3,w
  8371     051D  1683               	bsf	3,5	;RP0=1, select bank1
  8372     051E  1303               	bcf	3,6	;RP1=0, select bank1
  8373     051F  00A7               	movwf	(_Data_AUX1+3)^(0+128)
  8374     0520  0872               	movf	?___aldiv+2,w
  8375     0521  00A6               	movwf	(_Data_AUX1+2)^(0+128)
  8376     0522  0871               	movf	?___aldiv+1,w
  8377     0523  00A5               	movwf	(_Data_AUX1+1)^(0+128)
  8378     0524  0870               	movf	?___aldiv,w
  8379     0525  00A4               	movwf	_Data_AUX1^(0+128)
  8380                           
  8381                           ;Digitizer24bitsV1.c: 534:         Data_AUX2 = SumData_AUX2/5;
  8382     0526  3000               	movlw	0
  8383     0527  00F3               	movwf	___aldiv@divisor+3
  8384     0528  3000               	movlw	0
  8385     0529  00F2               	movwf	___aldiv@divisor+2
  8386     052A  3000               	movlw	0
  8387     052B  00F1               	movwf	___aldiv@divisor+1
  8388     052C  3005               	movlw	5
  8389     052D  00F0               	movwf	___aldiv@divisor
  8390     052E  082F               	movf	(_SumData_AUX2+3)^(0+128),w
  8391     052F  00F7               	movwf	___aldiv@dividend+3
  8392     0530  082E               	movf	(_SumData_AUX2+2)^(0+128),w
  8393     0531  00F6               	movwf	___aldiv@dividend+2
  8394     0532  082D               	movf	(_SumData_AUX2+1)^(0+128),w
  8395     0533  00F5               	movwf	___aldiv@dividend+1
  8396     0534  082C               	movf	_SumData_AUX2^(0+128),w
  8397     0535  00F4               	movwf	___aldiv@dividend
  8398     0536  160A  118A  2341  120A  118A  	fcall	___aldiv
  8399     053B  0873               	movf	?___aldiv+3,w
  8400     053C  1683               	bsf	3,5	;RP0=1, select bank1
  8401     053D  1303               	bcf	3,6	;RP1=0, select bank1
  8402     053E  00A3               	movwf	(_Data_AUX2+3)^(0+128)
  8403     053F  0872               	movf	?___aldiv+2,w
  8404     0540  00A2               	movwf	(_Data_AUX2+2)^(0+128)
  8405     0541  0871               	movf	?___aldiv+1,w
  8406     0542  00A1               	movwf	(_Data_AUX2+1)^(0+128)
  8407     0543  0870               	movf	?___aldiv,w
  8408     0544  00A0               	movwf	_Data_AUX2^(0+128)
  8409     0545                     i1l3333:
  8410                           
  8411                           ;Digitizer24bitsV1.c: 537:         print_string("JROADQ");
  8412     0545  3039               	movlw	(low ((STR_3-__stringbase)| (0+32768)))& (0+255)
  8413     0546  00F1               	movwf	print_string@str
  8414     0547  3080               	movlw	128
  8415     0548  00F2               	movwf	print_string@str+1
  8416     0549  160A  118A  2195  120A  118A  	fcall	_print_string
  8417     054E                     i1l3335:
  8418                           
  8419                           ;Digitizer24bitsV1.c: 538:         WriteByte_USART(ContaSample);
  8420     054E  1283               	bcf	3,5	;RP0=0, select bank0
  8421     054F  1303               	bcf	3,6	;RP1=0, select bank0
  8422     0550  084C               	movf	_ContaSample,w
  8423     0551  160A  118A  20EF  120A  118A  	fcall	_WriteByte_USART
  8424     0556                     i1l3337:
  8425                           
  8426                           ;Digitizer24bitsV1.c: 539:         print_value(Data_X);
  8427     0556  1283               	bcf	3,5	;RP0=0, select bank0
  8428     0557  1303               	bcf	3,6	;RP1=0, select bank0
  8429     0558  0837               	movf	_Data_X+3,w
  8430     0559  00F4               	movwf	print_value@value+3
  8431     055A  0836               	movf	_Data_X+2,w
  8432     055B  00F3               	movwf	print_value@value+2
  8433     055C  0835               	movf	_Data_X+1,w
  8434     055D  00F2               	movwf	print_value@value+1
  8435     055E  0834               	movf	_Data_X,w
  8436     055F  00F1               	movwf	print_value@value
  8437     0560  160A  118A  220F  120A  118A  	fcall	_print_value
  8438     0565                     i1l3339:
  8439                           
  8440                           ;Digitizer24bitsV1.c: 540:         print_value(Data_Y);
  8441     0565  1283               	bcf	3,5	;RP0=0, select bank0
  8442     0566  1303               	bcf	3,6	;RP1=0, select bank0
  8443     0567  0833               	movf	_Data_Y+3,w
  8444     0568  00F4               	movwf	print_value@value+3
  8445     0569  0832               	movf	_Data_Y+2,w
  8446     056A  00F3               	movwf	print_value@value+2
  8447     056B  0831               	movf	_Data_Y+1,w
  8448     056C  00F2               	movwf	print_value@value+1
  8449     056D  0830               	movf	_Data_Y,w
  8450     056E  00F1               	movwf	print_value@value
  8451     056F  160A  118A  220F  120A  118A  	fcall	_print_value
  8452     0574                     i1l3341:
  8453                           
  8454                           ;Digitizer24bitsV1.c: 541:         print_value(Data_Z);
  8455     0574  1283               	bcf	3,5	;RP0=0, select bank0
  8456     0575  1303               	bcf	3,6	;RP1=0, select bank0
  8457     0576  082F               	movf	_Data_Z+3,w
  8458     0577  00F4               	movwf	print_value@value+3
  8459     0578  082E               	movf	_Data_Z+2,w
  8460     0579  00F3               	movwf	print_value@value+2
  8461     057A  082D               	movf	_Data_Z+1,w
  8462     057B  00F2               	movwf	print_value@value+1
  8463     057C  082C               	movf	_Data_Z,w
  8464     057D  00F1               	movwf	print_value@value
  8465     057E  160A  118A  220F  120A  118A  	fcall	_print_value
  8466     0583                     i1l3343:
  8467                           
  8468                           ;Digitizer24bitsV1.c: 542:         print_value(Data_TC);
  8469     0583  1283               	bcf	3,5	;RP0=0, select bank0
  8470     0584  1303               	bcf	3,6	;RP1=0, select bank0
  8471     0585  082B               	movf	_Data_TC+3,w
  8472     0586  00F4               	movwf	print_value@value+3
  8473     0587  082A               	movf	_Data_TC+2,w
  8474     0588  00F3               	movwf	print_value@value+2
  8475     0589  0829               	movf	_Data_TC+1,w
  8476     058A  00F2               	movwf	print_value@value+1
  8477     058B  0828               	movf	_Data_TC,w
  8478     058C  00F1               	movwf	print_value@value
  8479     058D  160A  118A  220F  120A  118A  	fcall	_print_value
  8480     0592                     i1l3345:
  8481                           
  8482                           ;Digitizer24bitsV1.c: 543:         print_value(Data_TS);
  8483     0592  1283               	bcf	3,5	;RP0=0, select bank0
  8484     0593  1303               	bcf	3,6	;RP1=0, select bank0
  8485     0594  0827               	movf	_Data_TS+3,w
  8486     0595  00F4               	movwf	print_value@value+3
  8487     0596  0826               	movf	_Data_TS+2,w
  8488     0597  00F3               	movwf	print_value@value+2
  8489     0598  0825               	movf	_Data_TS+1,w
  8490     0599  00F2               	movwf	print_value@value+1
  8491     059A  0824               	movf	_Data_TS,w
  8492     059B  00F1               	movwf	print_value@value
  8493     059C  160A  118A  220F  120A  118A  	fcall	_print_value
  8494     05A1                     i1l3347:
  8495                           
  8496                           ;Digitizer24bitsV1.c: 544:         print_value(Data_AUX0);
  8497     05A1  1683               	bsf	3,5	;RP0=1, select bank1
  8498     05A2  1303               	bcf	3,6	;RP1=0, select bank1
  8499     05A3  082B               	movf	(_Data_AUX0+3)^(0+128),w
  8500     05A4  00F4               	movwf	print_value@value+3
  8501     05A5  082A               	movf	(_Data_AUX0+2)^(0+128),w
  8502     05A6  00F3               	movwf	print_value@value+2
  8503     05A7  0829               	movf	(_Data_AUX0+1)^(0+128),w
  8504     05A8  00F2               	movwf	print_value@value+1
  8505     05A9  0828               	movf	_Data_AUX0^(0+128),w
  8506     05AA  00F1               	movwf	print_value@value
  8507     05AB  160A  118A  220F  120A  118A  	fcall	_print_value
  8508     05B0                     i1l3349:
  8509                           
  8510                           ;Digitizer24bitsV1.c: 545:         print_value(Data_AUX1);
  8511     05B0  1683               	bsf	3,5	;RP0=1, select bank1
  8512     05B1  1303               	bcf	3,6	;RP1=0, select bank1
  8513     05B2  0827               	movf	(_Data_AUX1+3)^(0+128),w
  8514     05B3  00F4               	movwf	print_value@value+3
  8515     05B4  0826               	movf	(_Data_AUX1+2)^(0+128),w
  8516     05B5  00F3               	movwf	print_value@value+2
  8517     05B6  0825               	movf	(_Data_AUX1+1)^(0+128),w
  8518     05B7  00F2               	movwf	print_value@value+1
  8519     05B8  0824               	movf	_Data_AUX1^(0+128),w
  8520     05B9  00F1               	movwf	print_value@value
  8521     05BA  160A  118A  220F  120A  118A  	fcall	_print_value
  8522     05BF                     i1l3351:
  8523                           
  8524                           ;Digitizer24bitsV1.c: 546:         print_value(Data_AUX2);
  8525     05BF  1683               	bsf	3,5	;RP0=1, select bank1
  8526     05C0  1303               	bcf	3,6	;RP1=0, select bank1
  8527     05C1  0823               	movf	(_Data_AUX2+3)^(0+128),w
  8528     05C2  00F4               	movwf	print_value@value+3
  8529     05C3  0822               	movf	(_Data_AUX2+2)^(0+128),w
  8530     05C4  00F3               	movwf	print_value@value+2
  8531     05C5  0821               	movf	(_Data_AUX2+1)^(0+128),w
  8532     05C6  00F2               	movwf	print_value@value+1
  8533     05C7  0820               	movf	_Data_AUX2^(0+128),w
  8534     05C8  00F1               	movwf	print_value@value
  8535     05C9  160A  118A  220F  120A  118A  	fcall	_print_value
  8536     05CE                     i1l3353:
  8537                           
  8538                           ;Digitizer24bitsV1.c: 547:         print_string("\n\r");
  8539     05CE  3016               	movlw	(low (((STR_5+21)-__stringbase)| (0+32768)))& (0+255)
  8540     05CF  00F1               	movwf	print_string@str
  8541     05D0  3080               	movlw	128
  8542     05D1  00F2               	movwf	print_string@str+1
  8543     05D2  160A  118A  2195  120A  118A  	fcall	_print_string
  8544     05D7                     i1l3355:
  8545                           
  8546                           ;Digitizer24bitsV1.c: 549:         PORTAbits.RA2 = 0;
  8547     05D7  1283               	bcf	3,5	;RP0=0, select bank0
  8548     05D8  1303               	bcf	3,6	;RP1=0, select bank0
  8549     05D9  1105               	bcf	5,2	;volatile
  8550     05DA                     i1l3357:
  8551                           
  8552                           ;Digitizer24bitsV1.c: 551:         if(ContaSample == 4){
  8553     05DA  3004               	movlw	4
  8554     05DB  064C               	xorwf	_ContaSample,w
  8555     05DC  1D03               	btfss	3,2
  8556     05DD  2DDF               	goto	u127_21
  8557     05DE  2DE0               	goto	u127_20
  8558     05DF                     u127_21:
  8559     05DF  2DF6               	goto	i1l204
  8560     05E0                     u127_20:
  8561     05E0                     i1l3359:
  8562                           
  8563                           ;Digitizer24bitsV1.c: 552:             PIE1bits.TMR1IE = 0;
  8564     05E0  1683               	bsf	3,5	;RP0=1, select bank1
  8565     05E1  1303               	bcf	3,6	;RP1=0, select bank1
  8566     05E2  100C               	bcf	12,0	;volatile
  8567     05E3                     i1l3361:
  8568                           
  8569                           ;Digitizer24bitsV1.c: 553:             if(ControlSample == 1){
  8570     05E3  1283               	bcf	3,5	;RP0=0, select bank0
  8571     05E4  1303               	bcf	3,6	;RP1=0, select bank0
  8572     05E5  034D               	decf	_ControlSample,w
  8573     05E6  1D03               	btfss	3,2
  8574     05E7  2DE9               	goto	u128_21
  8575     05E8  2DEA               	goto	u128_20
  8576     05E9                     u128_21:
  8577     05E9  2DED               	goto	i1l3365
  8578     05EA                     u128_20:
  8579     05EA                     i1l3363:
  8580                           
  8581                           ;Digitizer24bitsV1.c: 554:                 INTCONbits.INTF = 0;
  8582     05EA  108B               	bcf	11,1	;volatile
  8583                           
  8584                           ;Digitizer24bitsV1.c: 555:                 INTCONbits.INTE = 1;
  8585     05EB  160B               	bsf	11,4	;volatile
  8586                           
  8587                           ;Digitizer24bitsV1.c: 556:             }else{
  8588     05EC  2DF6               	goto	i1l204
  8589     05ED                     i1l3365:
  8590                           
  8591                           ;Digitizer24bitsV1.c: 557:                 ReadAD24(0,0xFF);
  8592     05ED  30FF               	movlw	255
  8593     05EE  00D5               	movwf	ReadAD24@cmd_convert
  8594     05EF  3000               	movlw	0
  8595     05F0  160A  118A  23DE  120A  118A  	fcall	_ReadAD24
  8596     05F5  2DF6               	goto	i1l204
  8597     05F6                     i1l150:
  8598     05F6                     i1l204:
  8599     05F6  1283               	bcf	3,5	;RP0=0, select bank0
  8600     05F7  1303               	bcf	3,6	;RP1=0, select bank0
  8601     05F8  0869               	movf	??_Interrups+7,w
  8602     05F9  00FF               	movwf	btemp+1
  8603     05FA  0868               	movf	??_Interrups+6,w
  8604     05FB  008A               	movwf	10
  8605     05FC  0867               	movf	??_Interrups+5,w
  8606     05FD  0084               	movwf	4
  8607     05FE  0E66               	swapf	??_Interrups+4,w
  8608     05FF  0083               	movwf	3
  8609     0600  0EFE               	swapf	btemp,f
  8610     0601  0E7E               	swapf	btemp,w
  8611     0602  0009               	retfie
  8612     0603                     L1:
  8613     0603                     __end_of_Interrups:
  8614     0603  160A  118A  2DC0   	ljmp	i1l2511
  8615     0606                     L6:
  8616     0606                     L5:
  8617     0606  120A  118A  2EEC   	ljmp	i1l2843
  8618     0609                     L9:
  8619     0609                     L8:
  8620     0609  120A  118A  2E5A   	ljmp	i1l2763
  8621     060C                     L11:
  8622     060C                     L10:
  8623     060C  160A  118A  2CB9   	ljmp	i1l165
  8624     060F                     L13:
  8625     060F                     L12:
  8626     060F  120A  118A  2ED5   	ljmp	i1l2829
  8627     0612                     L15:
  8628     0612                     L14:
  8629     0612  160A  118A  2CA9   	ljmp	i1l2877
  8630     0615                     L17:
  8631     0615                     L16:
  8632     0615  120A  118A  2E9A   	ljmp	i1l2799
  8633     0618                     L19:
  8634     0618                     L18:
  8635     0618  160A  118A  2CA0   	ljmp	i1l2875

Data Sizes:
    Strings     63
    Constant    0
    Data        0
    BSS         92
    Persistent  0
    Stack       0

Auto Spaces:
    Space          Size  Autos    Used
    COMMON           14     14      14
    BANK0            80     29      76
    BANK1            80      3      48
    BANK3            96      0       0
    BANK2            96      0       0

Pointer List with Targets:

    print_string@str	PTR unsigned char  size(2) Largest target is 24
		 -> STR_13(CODE[3]), STR_12(CODE[11]), STR_11(CODE[3]), STR_10(CODE[11]), 
		 -> STR_9(CODE[3]), STR_8(CODE[7]), STR_7(CODE[3]), STR_6(CODE[7]), 
		 -> STR_5(CODE[24]), STR_4(CODE[3]), STR_3(CODE[7]), STR_2(CODE[3]), 
		 -> BufferDAT(BANK1[13]), STR_1(CODE[10]), 


Critical Paths under _main in COMMON

    None.

Critical Paths under _Interrups in COMMON

    _Interrups->_ReadAD24
    _print_value->_WriteByte_USART
    _TransmitDAT_USART->_print_string
    _TransmitCMD_USART->_print_string
    _print_string->_WriteByte_USART
    _ResetCS5532->_ReadRegister_4bytesCS5532
    _ResetCS5532->_WriteRegister_4bytesCS5532
    _InitCS5532->_ReadRegister_4bytesCS5532
    _InitCS5532->_WriteRegister_4bytesCS5532
    _WriteRegister_4bytesCS5532->_TransferByte_SPI
    _CleanHolding->_ReadAD24
    _ReadAD24->___aldiv
    _ReadRegister_4bytesCS5532->_TransferByte_SPI

Critical Paths under _main in BANK0

    None.

Critical Paths under _Interrups in BANK0

    _Interrups->_CleanHolding
    _CleanHolding->_ReadAD24
    _ReadAD24->___aldiv

Critical Paths under _main in BANK1

    None.

Critical Paths under _Interrups in BANK1

    None.

Critical Paths under _main in BANK3

    None.

Critical Paths under _Interrups in BANK3

    None.

Critical Paths under _main in BANK2

    None.

Critical Paths under _Interrups in BANK2

    None.

Call Graph Tables:

 ---------------------------------------------------------------------------------
 (Depth) Function   	        Calls       Base Space   Used Autos Params    Refs
 ---------------------------------------------------------------------------------
 (0) _main                                                 3     3      0       0
                                              0 BANK1      3     3      0
                      _ClosePort_SPI
                    _ClosePort_USART
                     _ConfigPort_SPI
                   _ConfigPort_USART
                       _OpenPort_SPI
                     _OpenPort_USART
 ---------------------------------------------------------------------------------
 (1) _OpenPort_USART                                       0     0      0       0
 ---------------------------------------------------------------------------------
 (1) _OpenPort_SPI                                         0     0      0       0
 ---------------------------------------------------------------------------------
 (1) _ConfigPort_USART                                     0     0      0       0
 ---------------------------------------------------------------------------------
 (1) _ConfigPort_SPI                                       0     0      0       0
 ---------------------------------------------------------------------------------
 (1) _ClosePort_USART                                      0     0      0       0
 ---------------------------------------------------------------------------------
 (1) _ClosePort_SPI                                        0     0      0       0
 ---------------------------------------------------------------------------------
 Estimated maximum stack depth 1
 ---------------------------------------------------------------------------------
 (Depth) Function   	        Calls       Base Space   Used Autos Params    Refs
 ---------------------------------------------------------------------------------
 (2) _Interrups                                           10    10      0   28398
                                             19 BANK0     10    10      0
                       _CleanHolding
                         _InitCS5532
                           _ReadAD24
          _ReadRegister_4bytesCS5532
                   _ReceiveCMD_USART
                        _ResetCS5532
                   _TransferByte_SPI
                  _TransmitCMD_USART
                  _TransmitDAT_USART
                    _WriteByte_USART
                            ___aldiv
                       _print_string
                        _print_value
 ---------------------------------------------------------------------------------
 (3) _print_value                                         12     8      4    2105
                                              1 COMMON    12     8      4
                    _WriteByte_USART
 ---------------------------------------------------------------------------------
 (3) _TransmitDAT_USART                                    2     2      0    1243
                                              3 COMMON     2     2      0
                    _WriteByte_USART
                       _print_string
 ---------------------------------------------------------------------------------
 (3) _TransmitCMD_USART                                    1     1      0    1175
                                              3 COMMON     1     1      0
                    _WriteByte_USART
                       _print_string
 ---------------------------------------------------------------------------------
 (3) _print_string                                         2     0      2    1131
                                              1 COMMON     2     0      2
                    _WriteByte_USART
 ---------------------------------------------------------------------------------
 (4) _WriteByte_USART                                      1     1      0      22
                                              0 COMMON     1     1      0
 ---------------------------------------------------------------------------------
 (3) _ResetCS5532                                          3     3      0     159
                                              2 COMMON     3     3      0
          _ReadRegister_4bytesCS5532
                   _TransferByte_SPI
         _WriteRegister_4bytesCS5532
 ---------------------------------------------------------------------------------
 (3) _ReceiveCMD_USART                                     2     2      0     164
                                              0 COMMON     2     2      0
                     _ReadByte_USART
 ---------------------------------------------------------------------------------
 (4) _ReadByte_USART                                       0     0      0       0
 ---------------------------------------------------------------------------------
 (3) _InitCS5532                                           0     0      0      90
          _ReadRegister_4bytesCS5532
         _WriteRegister_4bytesCS5532
 ---------------------------------------------------------------------------------
 (4) _WriteRegister_4bytesCS5532                           1     1      0      45
                                              1 COMMON     1     1      0
                   _TransferByte_SPI
 ---------------------------------------------------------------------------------
 (3) _CleanHolding                                         1     1      0    8408
                                             18 BANK0      1     1      0
                           _ReadAD24
 ---------------------------------------------------------------------------------
 (3) _ReadAD24                                            17    13      4    8408
                                              9 COMMON     5     5      0
                                              6 BANK0     12     8      4
          _ReadRegister_4bytesCS5532
                            ___aldiv
 ---------------------------------------------------------------------------------
 (3) ___aldiv                                             15     7      8    4252
                                              0 COMMON     9     1      8
                                              0 BANK0      6     6      0
 ---------------------------------------------------------------------------------
 (4) _ReadRegister_4bytesCS5532                            1     1      0      45
                                              1 COMMON     1     1      0
                   _TransferByte_SPI
 ---------------------------------------------------------------------------------
 (3) _TransferByte_SPI                                     2     2      0      23
                                              0 COMMON     1     1      0
 ---------------------------------------------------------------------------------
 Estimated maximum stack depth 4
 ---------------------------------------------------------------------------------

 Call Graph Graphs:

 _main (ROOT)
   _ClosePort_SPI
   _ClosePort_USART
   _ConfigPort_SPI
   _ConfigPort_USART
   _OpenPort_SPI
   _OpenPort_USART

 _Interrups (ROOT)
   _CleanHolding
     _ReadAD24
       _ReadRegister_4bytesCS5532
         _TransferByte_SPI
       ___aldiv
   _InitCS5532
     _ReadRegister_4bytesCS5532
     _WriteRegister_4bytesCS5532
       _TransferByte_SPI
   _ReadAD24
   _ReadRegister_4bytesCS5532
   _ReceiveCMD_USART
     _ReadByte_USART
   _ResetCS5532
     _ReadRegister_4bytesCS5532
     _TransferByte_SPI
     _WriteRegister_4bytesCS5532
   _TransferByte_SPI
   _TransmitCMD_USART
     _WriteByte_USART
     _print_string
       _WriteByte_USART
   _TransmitDAT_USART
     _WriteByte_USART
     _print_string
   _WriteByte_USART
   ___aldiv
   _print_string
   _print_value
     _WriteByte_USART

 Address spaces:
Name               Size   Autos  Total    Cost      Usage
BITCOMMON            E      0       0       0        0.0%
EEDATA             100      0       0       0        0.0%
NULL                 0      0       0       0        0.0%
CODE                 0      0       0       0        0.0%
COMMON               E      E       E       1      100.0%
BITSFR0              0      0       0       1        0.0%
SFR0                 0      0       0       1        0.0%
BITSFR1              0      0       0       2        0.0%
SFR1                 0      0       0       2        0.0%
STACK                0      0       0       2        0.0%
ABS                  0      0      8A       3        0.0%
BITBANK0            50      0       0       4        0.0%
BITSFR3              0      0       0       4        0.0%
SFR3                 0      0       0       4        0.0%
BANK0               50     1D      4C       5       95.0%
BITSFR2              0      0       0       5        0.0%
SFR2                 0      0       0       5        0.0%
BITBANK1            50      0       0       6        0.0%
BANK1               50      3      30       7       60.0%
BITBANK3            60      0       0       8        0.0%
BANK3               60      0       0       9        0.0%
BITBANK2            60      0       0      10        0.0%
BANK2               60      0       0      11        0.0%
DATA                 0      0      8A      12        0.0%


Microchip Technology PIC Macro Assembler V2.41 build 20230208172133 
Symbol Table                                                                                   Wed Aug 16 09:46:48 2023

                                 pc 0002                         _SSPSTATbits 0094  
                                fsr 0004                                 l210 1285  
                               l209 1285                                 l282 10EE  
                               l285 10E6                                 l279 110A  
                               l392 1176                                 l395 0803  
                               l398 10EA                                 _PR2 0092  
                   ?_OpenPort_USART 0070             TransmitDAT_USART@DAT_ID 0073  
                               fsr0 0004                                 indf 0000  
            TransmitDAT_USART@conta 0074                                l3501 10E3  
                              l3511 1253                                l3503 124A  
                              l3521 126A                                l3513 1254  
                              l3505 124E                                l3531 1280  
                              l3523 1274                                l3515 1258  
                              l3507 1251                                l3533 1283  
                              l3525 1279                                l3517 125A  
                              l3509 1252                                l3535 1284  
                              l3527 127E                                l3519 125B  
                              l3481 1106                                l3529 127F  
                              l3491 1170                                l3493 1173  
                              l3485 10EB                                l3479 10FC  
                              l3487 115A                                l3489 115E  
                              l3497 0800                                l3499 10E7  
                              STR_1 103E                                STR_2 1025  
                              STR_3 1048                                STR_4 1025  
                              STR_5 1010                                STR_6 1048  
                              STR_7 1025                                STR_8 1048  
                              STR_9 1025                                u1297 1264  
                              _TMR2 0011                                _main 124A  
                              btemp 007E                                start 0012  
           __end_of_ClosePort_USART 10EB           _ReadRegister_4bytesCS5532 11E3  
                   __end_of___aldiv 13DE                               ?_main 0070  
                             STR_10 1028                               STR_11 1025  
                             STR_12 1033                               STR_13 1025  
                             _T1CON 0010                               _T2CON 0012  
                             i1l130 165B                               i1l204 05F6  
                             i1l125 0643                               i1l302 120E  
                             i1l150 05F6                               i1l151 0060  
                             i1l312 149F                               i1l305 11E2  
                             i1l401 111F                               i1l315 113F  
                             i1l308 13DF                               i1l412 10FB  
                             i1l148 062B                               i1l405 1127  
                             i1l165 14B9                               i1l406 112A  
                             i1l431 1159                               i1l167 1546  
                             i1l600 13DD                               i1l424 133C  
                             i1l409 10F5                               i1l418 11BA  
                             i1l186 00E0                               i1l291 111A  
                             i1l428 1340                               i1l436 07FD  
                             i1l439 1249                               i1l288 1111  
                             i1l296 12D5                               i1l299 1194  
                             i1l590 1355                               _RCREG 001A  
                             _RCSTA 0018                               _TMR1H 000F  
                             _TMR1L 000E                               _SPBRG 0099  
                             _PORTA 0005                               _PORTB 0006  
                             _PORTC 0007                               u70_25 137D  
                             u71_20 138C                               u71_21 138B  
                             u80_20 1411                               u72_25 138E  
                             u80_25 140C                               u65_20 1117  
                             u73_20 13A7                               u81_20 143B  
                             u65_21 1116                               u73_21 13A6  
                             _TRISA 0085                               _TRISB 0086  
                             u73_25 13A3                               u81_25 1436  
                             _TRISC 0087                               u82_20 1465  
                             u90_20 12F4                               u66_20 10FB  
                             u90_21 12F3                               u66_21 10FA  
                             u74_25 13B7                               u82_25 1460  
                             u75_20 13C5                               u67_20 1348  
                             u83_20 1123                               u91_20 1300  
                             u75_21 13C4                               u67_21 1347  
                             u83_21 1122                               u91_21 12FF  
                             u76_20 13CA                               u68_20 1359  
                             u84_20 1127                               u92_20 130C  
                             u76_21 13C9                               u68_21 1358  
                             u84_21 1126                               u92_21 130B  
                             u69_20 1378                               u93_20 1318  
                             u77_20 11BA                               u85_20 121E  
                             u69_21 1377                               u93_21 1317  
                             u77_21 11B9                               u85_25 1219  
                             u78_20 13E5                               u94_20 129A  
                             u86_20 1231                               u78_21 13E4  
                             u94_21 1299                               u86_25 122C  
                             u79_20 13F8                               u87_20 07F4  
                             u95_20 15B7                               u79_21 13F7  
                             u87_21 07F3                               u95_21 15B4  
                             u88_20 12E3                               u96_20 15BB  
                             u88_21 12E2                               u96_21 15BA  
                             u89_20 12EE                               u97_20 15C7  
                             u89_21 12ED                               u97_21 15C4  
                             _TXREG 0019                               u98_20 1621  
                             u98_21 1620                               u99_20 168A  
                             u99_21 1689                               _TXSTA 0098  
                        _InitCS5532 1177                               pclath 000A  
                             status 0003                               wtemp0 007E  
                   __initialization 0015                    __end_of_ReadAD24 14A0  
                      __end_of_main 1289                       ??_ResetCS5532 0072  
                            ??_main 00CD                      _ReadByte_USART 111B  
                            _ADCON1 009F                              u100_20 0966  
                            u100_21 0965                              u101_20 09CE  
                            u101_21 09CD                              u110_20 1575  
                            u102_20 0A36                              u110_21 1574  
                            u102_21 0A35                              u111_20 16F4  
                            u103_20 083A                              i1l3001 1796  
                            u111_21 16F3                              u103_21 0839  
                            i1l3011 17BB                              i1l3003 179B  
                            i1l2301 13CA                              i1l3101 0F71  
                            i1l3021 17FB                              i1l3013 17BE  
                            i1l3005 179F                              i1l2303 13D5  
                            i1l2311 11A4                              i1l3111 0FB5  
                            i1l3103 0F79                              i1l3031 0CB8  
                            i1l3007 17AA                              u120_20 010F  
                            u112_20 175C                              u104_20 08C4  
                            i1l2321 13F3                              i1l2401 12F4  
                            i1l2313 11AA                              u120_21 010E  
                            i1l3121 0FFA                              i1l3113 0FC4  
                            i1l3105 0F88                              i1l3041 0CD3  
                            i1l3033 0CC2                              i1l3025 0CA4  
                            i1l3017 17C7                              i1l3009 17B4  
                            u112_21 175B                              u104_21 08C3  
                            i1l2243 110C                              i1l2323 13F8  
                            i1l2315 13DF                              i1l2331 11BC  
                            i1l2411 1312                              i1l2403 12FA  
                            i1l2251 10F4                              i1l2307 1195  
                            i1l3211 01B1                              i1l3203 0178  
                            i1l3131 006B                              i1l3123 002A  
                            i1l3115 0FD3                              i1l3107 0F97  
                            i1l3051 0D31                              i1l3043 0CF2  
                            i1l3035 0CC9                              i1l3027 0CA9  
                            i1l3019 17D8                              i1l2245 1117  
                            i1l2261 1205                              i1l2253 11E4  
                            i1l2325 1478                              i1l2317 13E5  
                            i1l2341 1129                              i1l2413 1318  
                            i1l2405 1300                              i1l2309 1196  
                            i1l3301 0359                              i1l3221 01D6  
                            i1l3213 01B6                              i1l3205 0189  
                            i1l3141 0080                              i1l3133 006F  
                            i1l3125 0030                              i1l3117 0FE2  
                            i1l3109 0FA6                              i1l3061 0D56  
                            i1l3053 0D35                              i1l3045 0D27  
                            i1l3037 0CCC                              i1l3029 0CAD  
                            i1l2255 11EA                              i1l2271 1359  
                            i1l2327 1495                              i1l2319 13EB  
                            i1l2335 111B                              i1l2415 1338  
                            i1l2407 1306                              i1l2431 1289  
                            i1l2423 1141                              i1l2351 120F  
                            i1l3311 03B4                              i1l3303 03A4  
                            i1l3231 0214                              i1l3223 01D9  
                            i1l3215 01BA                              i1l3207 01AC  
                            i1l3151 00A0                              i1l3143 0081  
                            i1l3135 0073                              i1l3119 0FF1  
                            i1l3055 0D40                              i1l3127 0034  
                            i1l2511 15C0                              u121_20 0177  
                            u113_20 17C4                              u105_20 0AA2  
                            i1l2257 11F3                              i1l2281 137B  
                            i1l2273 1364                              i1l2265 1341  
                            i1l2345 112B                              i1l2337 111E  
                            i1l2409 130C                              i1l2441 1294  
                            i1l2249 10F0                              i1l2425 114A  
                            i1l2353 1235                              i1l3313 03BF  
                            i1l3241 022D                              i1l3217 01C5  
                            u121_21 0176                              i1l3145 008C  
                            i1l3137 0077                              i1l3129 0065  
                            i1l3081 0DEC                              i1l3073 0DCE  
                            i1l3065 0D5D                              i1l3057 0D4A  
                            i1l3049 0D2C                              u113_21 17C3  
                            u105_21 0AA1                              i1l2601 0978  
                            i1l2521 15D2                              i1l2513 15C7  
                            i1l2505 15B1                              i1l2259 11FC  
                            i1l2291 13A7                              i1l2283 1384  
                            i1l2275 1368                              i1l2267 1344  
                            i1l2347 1136                              i1l2339 1123  
                            i1l2419 133F                              i1l2451 12B2  
                            i1l2443 129A                              i1l2427 1150  
                            i1l2363 07D0                              i1l2355 1237  
                            i1l3331 044D                              i1l3323 03DC  
                            i1l3315 03C9                              i1l3307 03AB  
                            i1l3251 0248                              i1l3243 0237  
                            i1l3235 0219                              i1l3227 01E0  
                            i1l3219 01CF                              i1l3171 00FF  
                            i1l3163 00E1                              i1l3155 00A7  
                            i1l3147 0096                              i1l3139 007C  
                            i1l3091 0E1E                              i1l3083 0DF5  
                            i1l3075 0DD3                              i1l3067 0D7C  
                            i1l3059 0D53                              i1l2611 09A9  
                            i1l2603 099B                              i1l2531 15E9  
                            i1l2523 15D5                              i1l2515 15C8  
                            i1l2507 15B7                              i1l2293 13B5  
                            i1l2285 1388                              i1l2277 1370  
                            i1l2269 1348                              i1l2461 12CC  
                            i1l2453 12B8                              i1l2445 12A0  
                            i1l2437 128A                              i1l2373 07E0  
                            i1l2365 07D9                              i1l2357 123D  
                            i1l3341 0574                              i1l3333 0545  
                            i1l3325 03FB                              i1l3317 03D2  
                            i1l3309 03B0                              i1l3261 0286  
                            i1l3253 0259                              i1l3245 023E  
                            i1l3237 021E                              i1l3229 01F1  
                            i1l3181 0121                              i1l3173 0106  
                            i1l3165 00E6                              i1l3157 00B8  
                            i1l3149 009D                              i1l3093 0E69  
                            i1l3085 0DF8                              i1l3077 0DD7  
                            i1l3069 0DC7                              i1l2613 09B4  
                            i1l2541 1607                              i1l2533 15F2  
                            i1l2525 15D6                              i1l2517 15CE  
                            i1l2509 15BB                              i1l2295 13B6  
                            i1l2287 138C                              i1l2279 1378  
                            i1l2471 1186                              i1l2391 12DD  
                            i1l2383 12D6                              i1l2463 12D2  
                            i1l2455 12BC                              i1l2447 12A9  
                            i1l2439 1290                              i1l2375 07EA  
                            i1l2367 07DF                              i1l2359 1243  
                            i1l3351 05BF                              i1l3343 0583  
                            i1l3335 054E                              i1l3327 0446  
                            i1l3319 03D5                              i1l3271 02A9  
                            i1l3263 028A                              i1l3255 027C  
                            i1l3247 0241                              i1l3239 0222  
                            i1l3191 0152                              i1l3183 0144  
                            i1l3175 0109                              i1l3167 00EA  
                            i1l3159 00DB                              i1l3079 0DE2  
                            i1l2711 0A90                              i1l2703 0A72  
                            i1l2631 0A08                              i1l2623 09CF  
                            i1l2615 09BE                              i1l2607 09A0  
                            i1l2551 1622                              i1l2543 1611  
                            i1l2535 15F7                              i1l2527 15D7  
                            i1l2519 15CF                              u122_20 01DF  
                            u114_20 0CD2                              u106_20 0649  
                            i1l2297 13BF                              i1l2289 1395  
                            i1l2473 118A                              i1l2457 12C2  
                            i1l2449 12AF                              i1l2377 07EE  
                            i1l3361 05E3                              i1l3353 05CE  
                            i1l3345 0592                              i1l3337 0556  
                            i1l3265 0295                              u122_21 01DE  
                            i1l3193 015D                              i1l3169 00F5  
                            i1l3097 0E70                              i1l3089 0DFF  
                            u114_21 0CD1                              i1l2801 06A0  
                            u106_21 0646                              i1l3601 0635  
                            i1l2721 0AC2                              i1l2713 0A99  
                            i1l2705 0A77                              i1l2641 0A2D  
                            i1l2633 0A0D                              i1l2625 09E0  
                            i1l2617 09C5                              i1l2609 09A5  
                            i1l2561 1661                              i1l2553 1633  
                            i1l2545 1618                              i1l2537 15FB  
                            i1l2529 15E0                              i1l2299 13C5  
                            i1l2475 118B                              i1l2467 1177  
                            i1l2395 12E4                              i1l2459 12C8  
                            i1l2379 07F4                              i1l3363 05EA  
                            i1l3355 05D7                              i1l3347 05A1  
                            i1l3339 0565                              i1l3291 0327  
                            i1l3283 0309                              i1l3275 02B0  
                            i1l3267 029F                              i1l3259 0281  
                            i1l3195 0167                              i1l3187 0149  
                            i1l3179 0110                              i1l3603 003C  
                            i1l3099 0F68                              i1l2811 06B9  
                            i1l2803 06A8                              i1l2731 0C15  
                            i1l2723 0B0D                              i1l2715 0A9C  
                            i1l2707 0A7B                              i1l2651 0A6D  
                            i1l2643 0A30                              i1l2635 0A11  
                            i1l2627 0A03                              i1l2619 09C8  
                            i1l2571 1684                              i1l2563 1665  
                            i1l2555 1656                              i1l2547 161B  
                            i1l2539 15FC                              i1l2477 118D  
                            i1l2469 117D                              i1l2397 12E8  
                            i1l2389 12D7                              i1l3365 05ED  
                            i1l3357 05DA                              i1l3349 05B0  
                            i1l3293 0330                              i1l3285 030E  
                            i1l3277 02CF                              i1l3269 02A6  
                            i1l3197 016E                              i1l3189 014E  
                            i1l2901 14D4                              i1l2821 06C9  
                            i1l2813 06BB                              i1l2805 06AD  
                            i1l2741 0C59                              i1l2733 0C1D  
                            i1l2709 0A86                              i1l2661 0820  
                            i1l2637 0A1C                              i1l2565 1670  
                            i1l2399 12EE                              i1l3359 05E0  
                            i1l3295 0333                              i1l3287 0312  
                            i1l3279 0304                              i1l3199 0171  
                            i1l2911 14F2                              i1l2903 14DD  
                            i1l2831 06DB                              i1l2823 06CB  
                            i1l2815 06BD                              i1l2807 06B3  
                            i1l2751 0C9E                              i1l2743 0C68  
                            i1l2735 0C2C                              i1l2727 0B14  
                            i1l2719 0AA3                              i1l2671 083B  
                            i1l2663 082A                              i1l2655 080C  
                            i1l2647 0A39                              i1l2639 0A26  
                            i1l2591 0956                              i1l2583 0938  
                            i1l2575 168D                              i1l2567 167A  
                            i1l2559 165C                              u130_27 1602  
                            u123_20 0247                              u115_20 0D5C  
                            u107_20 064F                              i1l3289 031D  
                            u123_21 0246                              u115_21 0D5B  
                            i1l2921 150D                              i1l2913 14FC  
                            i1l2905 14E2                              i1l2841 06EA  
                            i1l2833 06DE                              i1l2825 06CD  
                            i1l2817 06C3                              i1l2809 06B7  
                            i1l2761 064F                              u107_21 064E  
                            i1l2753 061B                              i1l2745 0C77  
                            i1l2737 0C3B                              i1l2729 0C0C  
                            i1l2681 0899                              i1l2673 085A  
                            i1l2665 0831                              i1l2657 0811  
                            i1l2649 0A4A                              i1l2593 095D  
                            i1l2585 093D                              i1l2577 169E  
                            i1l2569 1681                              i1l3299 033A  
                            i1l2931 154C                              i1l2923 151E  
                            i1l2915 1503                              i1l2907 14E6  
                            i1l2851 070B                              i1l2843 06EC  
                            i1l2835 06E0                              i1l2827 06CE  
                            i1l2819 06C7                              i1l2771 066E  
                            i1l2763 065A                              i1l2755 0624  
                            i1l2747 0C86                              i1l2739 0C4A  
                            i1l2691 08BE                              i1l2683 089D  
                            i1l2675 088F                              i1l2667 0834  
                            i1l2659 0815                              i1l2595 0960  
                            i1l2587 0941                              i1l2579 16C1  
                            i1l2941 156F                              i1l2933 1550  
                            i1l2925 1541                              i1l2917 1506  
                            i1l2909 14E7                              i1l2861 0724  
                            i1l2853 0711                              i1l2845 06F2  
                            i1l2837 06E6                              i1l2829 06D5  
                            i1l2781 0680                              i1l2773 0670  
                            i1l2765 0660                              i1l2749 0C95  
                            i1l2685 08A8                              i1l2589 094C  
                            i1l2757 062D                              i1l2935 155B  
                            i1l2863 072A                              i1l2871 079D  
                            i1l2855 071A                              i1l2847 06F6  
                            i1l2839 06E9                              i1l2791 0690  
                            i1l2783 0684                              i1l2775 0672  
                            i1l2767 0664                              i1l2759 0649  
                            i1l2695 08C7                              i1l2687 08B2  
                            i1l2679 0894                              i1l2599 0967  
                            u131_27 166B                              u124_20 02AF  
                            u116_20 0DFE                              u108_20 0723  
                            u124_21 02AE                              u116_21 0DFD  
                            i1l2961 16E4                              i1l2953 16C6  
                            i1l2945 1578                              i1l2937 1565  
                            i1l2929 1547                              i1l2881 14B3  
                            i1l2873 07BE                              i1l2865 074B  
                            u108_21 0722                              i1l2857 071D  
                            i1l2849 0701                              i1l2793 0694  
                            i1l2785 0687                              i1l2777 0673  
                            i1l2769 066A                              i1l2697 08E6  
                            i1l2689 08BB                              i1l2971 1706  
                            i1l2963 16EB                              i1l2955 16CB  
                            i1l2947 1589                              i1l2939 156C  
                            i1l2891 14C1                              i1l2883 14B6  
                            i1l2875 14A0                              i1l2867 0796  
                            i1l2795 0697                              i1l2787 0688  
                            i1l2779 067A                              i1l2699 0931  
                            i1l2981 1737                              i1l2973 1729  
                            i1l2965 16EE                              i1l2957 16CF  
                            i1l2949 15AC                              i1l2893 14C4  
                            i1l2885 14B7                              i1l2877 14A9  
                            i1l2797 0698                              i1l2789 068A  
                            i1l2983 1742                              i1l2959 16DA  
                            u140_27 1556                              i1l2895 14CA  
                            i1l2887 14BA                              i1l2879 14AF  
                            i1l2799 069A                              u132_27 0947  
                            u125_20 0339                              u117_20 0065  
                            u109_20 150C                              u125_21 0338  
                            u117_21 0064                              i1l2993 175D  
                            i1l2985 174C                              i1l2977 172E  
                            i1l2969 16F5                              u109_21 150B  
                            i1l2897 14D0                              i1l2889 14C0  
                            i1l2995 176E                              i1l2987 1753  
                            i1l2979 1733                              i1l2899 14D3  
                            i1l2997 1791                              i1l2989 1756  
                            u141_27 16D5                              u133_27 09AF  
                            u126_20 03DB                              u118_20 006B  
                            u126_21 03DA                              u118_21 006A  
                            u150_27 01C0                              u142_27 173D  
                            u134_27 0A17                              u127_20 05E0  
                            u119_20 00A6                              u127_21 05DF  
                            u119_21 00A5                              u151_27 0228  
                            u143_27 17A5                              u135_27 081B  
                            u128_20 05EA                              u128_21 05E9  
                            u152_27 0290                              u144_27 0CB3  
                            u136_27 08A3                              u153_27 0318  
                            u145_27 0D3B                              u137_27 0A81  
                            u154_27 03BA                              u146_27 0DDD  
                            u138_27 06FC                              u155_27 12A4  
                            u147_27 0087                              u139_27 14ED  
                            u156_27 12BA                              u148_27 00F0  
                            u157_27 12CA                              u149_27 0158  
                            u158_27 1133                              _SSPBUF 0013  
                            _CmdGPS 004E                              _Data_X 0034  
                            _Data_Y 0030                              _Data_Z 002C  
          __end_of_ReceiveCMD_USART 1341  __end_of_WriteRegister_4bytesCS5532 11E3  
        _WriteRegister_4bytesCS5532 11BB                         _ContaSample 004C  
                         ??___aldiv 0078                    print_value@Bytes 007A  
                  ?_ClosePort_USART 0070                          _SumData_TC 003C  
                        _SumData_TS 0038            __end_of_ConfigPort_USART 1177  
                  print_value@value 0071                    _TransferByte_SPI 110B  
                      _CleanHolding 112B                         Interrups@ID 006A  
            __end_of_ReadByte_USART 112B                              saved_w 007E  
               __end_of_ResetCS5532 12D6                         ?_InitCS5532 0070  
           __end_of__initialization 0026                        ?_print_value 0071  
                     ?_OpenPort_SPI 0070               __end_of_ClosePort_SPI 10E7  
                    __pcstackCOMMON 0070                    ??_OpenPort_USART 00CD  
                   ?_ReadByte_USART 0070                      _OPTION_REGbits 0081  
                 __end_of_Interrups 0603                           ?_ReadAD24 0055  
                        __pbssBANK0 0020                          __pbssBANK1 00A0  
                    ??_OpenPort_SPI 00CD                          __pmaintext 124A  
                        __pintentry 0004                         _ResetCS5532 1289  
                        ??_ReadAD24 0059                          __stringtab 1000  
                           _Data_TC 0028                             _Data_TS 0024  
                           ___aldiv 1341                 ReadAD24@cmd_convert 0055  
      ??_WriteRegister_4bytesCS5532 0071                             __ptext1 0800  
                           __ptext2 10EB                             __ptext3 115A  
                           __ptext4 10FC                             __ptext5 10E7  
                           __ptext6 10E3                             __ptext7 15B1  
                           __ptext8 120F                             __ptext9 07CF  
                         _T2CONbits 0012                         _SumData_GND 00B8  
                  ___aldiv@dividend 0074                             clrloop0 0805  
              end_of_initialization 0026                 WriteByte_USART@byte 0070  
          __end_of_TransferByte_SPI 111B                   ?_ReceiveCMD_USART 0070  
                ??_ReceiveCMD_USART 0070                           _RCSTAbits 0018  
                  ___aldiv@quotient 0051                             psplit$0 110024  
                           psplit$1 240025                             psplit$2 250026  
                           psplit$3 260027                             psplit$4 270028  
                           psplit$5 280029                             psplit$6 29002A  
                           psplit$7 2A002B                   ??_WriteByte_USART 0070  
                 ?_ConfigPort_USART 0070                           _PORTAbits 0005  
                         _PORTBbits 0006                           _PORTCbits 0007  
              __end_of_OpenPort_SPI 10EF                  ??_ConfigPort_USART 00CD  
                    _ConfigPort_SPI 10FC                           _TRISCbits 0087  
                     ?_print_string 0071                        ??_InitCS5532 0072  
                         _Data_AUX0 00A8                           _Data_AUX1 00A4  
                         _Data_AUX2 00A0                TransferByte_SPI@data 0070  
                         _BufferDAT 00C0                    ??_ReadByte_USART 0070  
                         _BufferSPI 00BC                  __end_of_InitCS5532 1195  
            __end_of_ConfigPort_SPI 110B                 start_initialization 0015  
                    ??_print_string 0073             TransmitCMD_USART@CMD_ID 0073  
                 pnum$text7_split_1 0024                   pnum$text7_split_2 0025  
                 pnum$text7_split_3 0026                   pnum$text7_split_4 0027  
                 pnum$text7_split_5 0028                   pnum$text7_split_6 0029  
                 pnum$text7_split_7 002A                   pnum$text7_split_8 002B  
                         _Interrups 15B1          ReceiveCMD_USART@conta_byte 0070  
                 _TransmitDAT_USART 07CF                           _SumData_X 0048  
                         _SumData_Y 0044                           _SumData_Z 0040  
                 _TransmitCMD_USART 1140                  ?_TransmitDAT_USART 0070  
                ?_TransmitCMD_USART 0070                        ?_ResetCS5532 0070  
                   ?_ConfigPort_SPI 0070                 ??_TransmitDAT_USART 0073  
                         ___latbits 0002                       __pcstackBANK0 004F  
                     __pcstackBANK1 00CD                 ??_TransmitCMD_USART 0073  
                        ?_Interrups 0070           __end_of_TransmitDAT_USART 07FE  
         __end_of_TransmitCMD_USART 115A                            ?___aldiv 0070  
                   print_string@str 0071                           __pstrings 1000  
                 ??_ClosePort_USART 00CD          ?_ReadRegister_4bytesCS5532 0070  
                   ___aldiv@divisor 0070                   interrupt_function 0004  
                   ___aldiv@counter 004F                   ?_TransferByte_SPI 0070  
                   _WriteByte_USART 10EF                           clear_ram0 0804  
                      _OpenPort_SPI 10EB                            _PIE1bits 008C  
                ??_TransferByte_SPI 0070                            _PIR1bits 000C  
                     _ClosePort_SPI 10E3                __end_of_print_string 11BB  
                     ?_CleanHolding 0070                         __stringbase 100F  
                          _Data_GND 00B4           ReceiveCMD_USART@data_byte 0071  
                          _ReadAD24 13DE                      Interrups@conta 006B  
                       ??_Interrups 0062                       ??_print_value 0075  
 __end_of_ReadRegister_4bytesCS5532 120F    ReadRegister_4bytesCS5532@command 0071  
                    ?_ClosePort_SPI 0070                      ??_CleanHolding 0061  
                __end_of__stringtab 1010                    ResetCS5532@conta 0074  
                          __ptext10 1140                            __ptext11 1195  
                          __ptext20 1341                            __ptext12 10EF  
                          __ptext21 11E3                            __ptext13 1289  
                          __ptext22 110B                            __ptext14 12D6  
                          __ptext15 111B                            __ptext16 1177  
                          __ptext17 11BB                            __ptext18 112B  
                          __ptext19 13DE             __end_of_WriteByte_USART 10FC  
                         pnum$text7 0011                        _SumData_AUX0 0020  
                      _SumData_AUX1 00B0                        _SumData_AUX2 00AC  
               __end_of_print_value 124A                    ??_ConfigPort_SPI 00CD  
       ?_WriteRegister_4bytesCS5532 0070   WriteRegister_4bytesCS5532@command 0071  
              ReadAD24@flag_convert 0079                          _INTCONbits 000B  
                    _OpenPort_USART 0800                            intlevel1 0000  
                   ??_ClosePort_SPI 00CD                           stringcode 100A  
                     _ControlSample 004D                     _ClosePort_USART 10E7  
            __end_of_OpenPort_USART 0804                    _ReceiveCMD_USART 12D6  
                          stringdir 100A                            stringtab 1000  
                      ___aldiv@sign 0050                        _print_string 1195  
                  ?_WriteByte_USART 0070                    _ConfigPort_USART 115A  
              __end_of_CleanHolding 1140         ??_ReadRegister_4bytesCS5532 0071  
                       _print_value 120F                     ReadAD24@DataADC 007A  
                        _SSPCONbits 0014  
